(lp1
S'<START>'
p2
aS'<UNK>'
p3
aS'<END>'
p4
aVthe
p5
aV.
aV,
aVand
p6
aVof
p7
aVto
p8
aVin
p9
aV"
aVa
aVis
p10
aVthat
p11
aV's
p12
aVon
p13
aVchina
p14
aVfor
p15
aVhas
p16
aVwith
p17
aVthis
p18
aVhave
p19
aVwill
p20
aVby
p21
aVbe
p22
aVas
p23
aVare
p24
aVit
p25
aVpeople
p26
aVtaiwan
p27
aVhe
p28
aVdevelopment
p29
aVat
p30
aVwe
p31
aVnot
p32
aV:
aVsaid
p33
aVan
p34
aVchinese
p35
aVcountries
p36
aVtwo
p37
aValso
p38
aVnew
p39
aVfrom
p40
aVshould
p41
aVus
p42
aVwas
p43
aVall
p44
aVtheir
p45
aVits
p46
aVeconomic
p47
aVrelations
p48
aVunited
p49
aVstates
p50
aVparty
p51
aVour
p52
aVbetween
p53
aVout
p54
aVgovernment
p55
aVhis
p56
aVone
p57
aVthey
p58
aVmust
p59
aVcan
p60
aVmilitary
p61
aVbeen
p62
aVmore
p63
aVwork
p64
aVcooperation
p65
aVimportant
p66
aVnational
p67
aVwhich
p68
aVup
p69
aVworld
p70
aVonly
p71
aVother
p72
aVsome
p73
aVbut
p74
aV'
aVstate
p75
aVcountry
p76
aVyear
p77
aVyears
p78
aVor
p79
aVinternational
p80
aVthere
p81
aVjiang
p82
aVmade
p83
aVsystem
p84
aVforeign
p85
aVthree
p86
aVpolitical
p87
aVwere
p88
aVtime
p89
aVpresident
p90
aVmeeting
p91
aVgreat
p92
aVafter
p93
aVvisit
p94
aVfirst
p95
aVissue
p96
aVover
p97
aVpolicy
p98
aVsecurity
p99
aVhad
p100
aVabout
p101
aVli
p102
aVzemin
p103
aVmake
p104
aVno
p105
aVsituation
p106
aVhowever
p107
aVtrade
p108
aVsocial
p109
aVthese
p110
aVsince
p111
aVeconomy
p112
aVcentury
p113
aVboth
p114
aVcommittee
p115
aVif
p116
aVmany
p117
aVinto
p118
aVsides
p119
aVlaw
p120
aVrights
p121
aVenterprises
p122
aVcentral
p123
aVvarious
p124
aVunder
p125
aVdeveloping
p126
aVjapan
p127
aVwould
p128
aVwhen
p129
aVduring
p130
aVfurther
p131
aVwho
p132
aVstill
p133
aVefforts
p134
aVwar
p135
aVprinciple
p136
aVsuch
p137
aVsupport
p138
aVthan
p139
aVdefense
p140
aVforces
p141
aVmarket
p142
aVreform
p143
aVbeijing
p144
aVhuman
p145
aVthrough
p146
aVpointed
p147
aVheld
p148
aVregion
p149
aVpeace
p150
aVso
p151
aVleaders
p152
aVi
aVgood
p153
aV)
aVbecome
p154
aVzhu
p155
aVvery
p156
aVmajor
p157
aVaccording
p158
aVeducation
p159
aVreunification
p160
aVwell
p161
aVplan
p162
aVthem
p163
aVinterests
p164
aVnow
p165
aV(
aVeven
p166
aVissues
p167
aVagainst
p168
aVmembers
p169
aVlong
p170
aVlast
p171
aV?
aVrussia
p172
aVtoday
p173
aVhong
p174
aVbush
p175
aVkong
p176
aVbeing
p177
aVuse
p178
aVbuilding
p179
aV;
aVforce
p180
aVcadres
p181
aVmost
p182
aVside
p183
aVwhat
p184
aValways
p185
aVdo
p186
aVstability
p187
aVindependence
p188
aVfinancial
p189
aVfuture
p190
aVmay
p191
aVcurrent
p192
aVauthorities
p193
aVorder
p194
aVcross-strait
p195
aV--
p196
aVhistory
p197
aVareas
p198
aVcontinue
p199
aVpast
p200
aVexpressed
p201
aV]
aVwhile
p202
aVfriendly
p203
aV[
aVmainland
p204
aVfalungong
p205
aVany
p206
aVstrategic
p207
aVwestern
p208
aVinformation
p209
aVimportance
p210
aVpublic
p211
aVbecause
p212
aVpercent
p213
aVrole
p214
aVsame
p215
aVcommon
p216
aVactivities
p217
aVaffairs
p218
aVcpc
p219
aVdevelop
p220
aVtalks
p221
aVproblems
p222
aVconditions
p223
aVpresent
p224
aVtechnology
p225
aVbilateral
p226
aVown
p227
aVjoint
p228
aVfriendship
p229
aVstrengthen
p230
aVhow
p231
aVway
p232
aVexchanges
p233
aVnecessary
p234
aVchairman
p235
aVlevel
p236
aVrepresents
p237
aVwto
p238
aVpromote
p239
aVmeasures
p240
aVdepartments
p241
aVfundamental
p242
aVmeans
p243
aVsocialist
p244
aVsystems
p245
aVbasic
p246
aVspeech
p247
aVperiod
p248
aVmanagement
p249
aVmotherland
p250
aVrongji
p251
aVprogress
p252
aVgrowth
p253
aVpower
p254
aVtoward
p255
aVmaking
p256
aVminister
p257
aVpractice
p258
aVtake
p259
aVpromoting
p260
aVjust
p261
aVpart
p262
aVforward
p263
aVscientific
p264
aVair
p265
aVquality
p266
aVpeaceful
p267
aVwang
p268
aVrecent
p269
aVlarge
p270
aVarmy
p271
aVmissile
p272
aVrelevant
p273
aVunderstanding
p274
aVnation
p275
aVinvestment
p276
aVcould
p277
aVchen
p278
aVstrong
p279
aVcannot
p280
aVmodernization
p281
aVlevels
p282
aVsociety
p283
aVstressed
p284
aVput
p285
aVtimes
p286
aVthose
p287
aVgeneral
p288
aVenvironment
p289
aVnumber
p290
aVhigh
p291
aVfully
p292
aVeach
p293
aVpeng
p294
aVattention
p295
aVquestion
p296
aVties
p297
aVcontrol
p298
aVbasis
p299
aVcouncil
p300
aVpolicies
p301
aVdprk
p302
aVyou
p303
aVtibet
p304
aVamong
p305
aVimprove
p306
aVsupervision
p307
aVmutual
p308
aVconstruction
p309
aVdeveloped
p310
aVdown
p311
aVviews
p312
aVopening
p313
aVsecretary
p314
aVsino-us
p315
aVbillion
p316
aVwhether
p317
aVincrease
p318
aVsecond
p319
aVhistorical
p320
aVarticle
p321
aVregional
p322
aVleadership
p323
aVanother
p324
aVpersonnel
p325
aVtraining
p326
aVscience
p327
aVprocess
p328
aVoffice
p329
aVfollowing
p330
aVincluding
p331
aVjapanese
p332
aVadministration
p333
aVhim
p334
aVcertain
p335
aVone-china
p336
aVend
p337
aVweapons
p338
aVcome
p339
aVnpc
p340
aVchange
p341
aVyuan
p342
aVspecial
p343
aVset
p344
aVkey
p345
aVexchange
p346
aVlegal
p347
aVleading
p348
aVideological
p349
aVtherefore
p350
aVresources
p351
aVresults
p352
aVstudy
p353
aVcause
p354
aVbefore
p355
aVagain
p356
aVconcerned
p357
aVpremier
p358
aVdifferent
p359
aVreport
p360
aVfive-year
p361
aVindustry
p362
aValthough
p363
aVserious
p364
aVwithout
p365
aVpositive
p366
aVhope
p367
aVfive
p368
aVdoes
p369
aVfields
p370
aVcarry
p371
aVday
p372
aVconference
p373
aVtheory
p374
aVnations
p375
aVsee
p376
aVorganizations
p377
aVachievements
p378
aVoverall
p379
aVarms
p380
aVstruggle
p381
aVcultural
p382
aVwater
p383
aValong
p384
aVcourse
p385
aVchanges
p386
aVnews
p387
aVstrategy
p388
aVtechnological
p389
aVdiplomatic
p390
aVspirit
p391
aVleader
p392
aVhold
p393
aVplay
p394
aVlee
p395
aVun
p396
aVmatter
p397
aVsovereignty
p398
aVdid
p399
aVstrait
p400
aValready
p401
aVestablished
p402
aVindia
p403
aVproblem
p404
aVsouth
p405
aVposition
p406
aVcity
p407
aVrural
p408
aVspace
p409
aVmedia
p410
aVthinking
p411
aVasia
p412
aVmain
p413
aVunits
p414
aVeffective
p415
aVaction
p416
aVincident
p417
aVwhole
p418
aVclinton
p419
aVfact
p420
aVnever
p421
aVmaintain
p422
aVstrengthening
p423
aVadvanced
p424
aVlife
p425
aVfull
p426
aVresearch
p427
aVhelp
p428
aVmasses
p429
aVofficials
p430
aVhu
p431
aVhard
p432
aVtask
p433
aVdirect
p434
aVshanghai
p435
aVmember
p436
aVpoint
p437
aVthings
p438
aVright
p439
aVago
p440
aVofficial
p441
aVneed
p442
aVbelieve
p443
aVorganization
p444
aVreached
p445
aVdomestic
p446
aVfoundation
p447
aVopen
p448
aVsummit
p449
aVstanding
p450
aVnmd
p451
aVoperations
p452
aVarmed
p453
aVstand
p454
aVdifficult
p455
aVagreement
p456
aVadopted
p457
aVunderstand
p458
aVdelegation
p459
aVgroup
p460
aVvice
p461
aVreporter
p462
aVdemocratic
p463
aVimplement
p464
aVline
p465
aVcircles
p466
aV10
p467
aV20
p468
aVbig
p469
aVvisited
p470
aVevery
p471
aVelection
p472
aVshui-bian
p473
aVshall
p474
aVher
p475
aVimpact
p476
aVtotal
p477
aVstrength
p478
aVzhang
p479
aVyour
p480
aVreason
p481
aVstructure
p482
aVthird
p483
aVcooperative
p484
aVexercise
p485
aVagricultural
p486
aVlike
p487
aVcarried
p488
aVresult
p489
aVmillion
p490
aVsession
p491
aV1999
p492
aVimplementation
p493
aVrussian
p494
aVregulations
p495
aVgive
p496
aVgiven
p497
aVfar
p498
aVlocal
p499
aVpossible
p500
aVlaws
p501
aVwest
p502
aVestablishment
p503
aVequipment
p504
aVearly
p505
aVdialogue
p506
aVdepartment
p507
aVable
p508
aVbuild
p509
aVdecision
p510
aVthemselves
p511
aVtaking
p512
aVtreaty
p513
aVtrend
p514
aVrequirements
p515
aVpeoples
p516
aVhere
p517
aVsignificance
p518
aVproject
p519
aVnature
p520
aVasked
p521
aVtasks
p522
aVworking
p523
aVcongress
p524
aVbetter
p525
aVfacts
p526
aVcharacteristics
p527
aVresponsibility
p528
aVensure
p529
aVachieved
p530
aVhigher
p531
aVonce
p532
aVact
p533
aVplane
p534
aVwilling
p535
aVwei
p536
aVstage
p537
aVproduction
p538
aVsocialism
p539
aVorgans
p540
aVachieve
p541
aVasian
p542
aVglobalization
p543
aVministry
p544
aVseveral
p545
aVteng-hui
p546
aVcapital
p547
aVthus
p548
aVresponsible
p549
aVeast
p550
aVrelationship
p551
aVprovide
p552
aVcorrect
p553
aVmodern
p554
aVespecially
p555
aVdeputy
p556
aVqian
p557
aVparties
p558
aVforum
p559
aVopportunities
p560
aVfew
p561
aVreports
p562
aVseries
p563
aVsmall
p564
aVbring
p565
aVnuclear
p566
aVface
p567
aVglobal
p568
aVconcern
p569
aVbusiness
p570
aVtaken
p571
aVwithin
p572
aVmet
p573
aVthen
p574
aV1
aVcompetition
p575
aVregard
p576
aVrecently
p577
aVjuly
p578
aVinfluence
p579
aVrealize
p580
aVkorean
p581
aVindicated
p582
aVculture
p583
aV$
aVsuccess
p584
aVmeet
p585
aVpay
p586
aVcontacts
p587
aVgreater
p588
aV10th
p589
aVplace
p590
aVinnovation
p591
aVhalf
p592
aVwhere
p593
aVcarrying
p594
aVsoon
p595
aVused
p596
aVproducts
p597
aVshe
p598
aVaddition
p599
aVgovernments
p600
aVadministrative
p601
aVknowledge
p602
aVtrust
p603
aVestablish
p604
aVstatus
p605
aVdemand
p606
aVstable
p607
aVview
p608
aVmuch
p609
aVattitude
p610
aVconsensus
p611
aVback
p612
aVfacing
p613
aVprovince
p614
aVenterprise
p615
aV2000
p616
aVdays
p617
aVgroups
p618
aVissued
p619
aVconstantly
p620
aVprime
p621
aVcomprehensive
p622
aVmethods
p623
aVland
p624
aVclearly
p625
aVprotection
p626
aVstate-owned
p627
aVterritory
p628
aVenhance
p629
aVmiddle
p630
aVcreate
p631
aVhopes
p632
aVdemocracy
p633
aVregions
p634
aVrok
p635
aVprosperity
p636
aVcomrade
p637
aVcppcc
p638
aVsay
p639
aVputin
p640
aVexperience
p641
aVentire
p642
aVninth
p643
aVlong-term
p644
aVhandling
p645
aVyoung
p646
aVxinhua
p647
aVgo
p648
aVlinks
p649
aVopportunity
p650
aVpaid
p651
aVindustrial
p652
aVtook
p653
aVworkers
p654
aVnoted
p655
aVrespect
p656
aVunity
p657
aVfunds
p658
aVjune
p659
aVnext
p660
aVmove
p661
aVtogether
p662
aVimprovement
p663
aVclose
p664
aVcommission
p665
aVqichen
p666
aVmy
p667
aVextremely
p668
aVcenter
p669
aVcore
p670
aVmainly
p671
aVcontributions
p672
aVethnic
p673
aVcombat
p674
aVrapid
p675
aVfour
p676
aVsuccessful
p677
aVplayed
p678
aVold
p679
aVmaintaining
p680
aVcompatriots
p681
aVcomplete
p682
aVcompany
p683
aVprovided
p684
aVcontinued
p685
aVso-called
p686
aVcommittees
p687
aVupon
p688
aVwu
p689
aVcold
p690
aVsales
p691
aVlearned
p692
aVcapability
p693
aVclear
p694
aVtroops
p695
aVprinciples
p696
aVpoints
p697
aVpropaganda
p698
aVneeds
p699
aVitself
p700
aVexperts
p701
aVfourth
p702
aVgoal
p703
aVservice
p704
aVmissiles
p705
aVcommunity
p706
aVprojects
p707
aVopinion
p708
aVdoing
p709
aVabove
p710
aVaccordance
p711
aVofficers
p712
aVlarge-scale
p713
aVmarch
p714
aVbased
p715
aVtang
p716
aVleft
p717
aVmarxism
p718
aVjintao
p719
aVmaintained
p720
aVaircraft
p721
aVrelatively
p722
aV50
p723
aVcases
p724
aVfactors
p725
aVcase
p726
aVcult
p727
aVprovincial
p728
aVnegotiations
p729
aVsense
p730
aVplans
p731
aVshow
p732
aVreporters
p733
aVoff
p734
aVactively
p735
aVoverseas
p736
aVreligious
p737
aVamerican
p738
aVstep
p739
aVimproving
p740
aVdeal
p741
aV21st
p742
aVresolutely
p743
aVjointly
p744
aVimplementing
p745
aVconduct
p746
aVgeneration
p747
aVwhy
p748
aVwords
p749
aVrepresentatives
p750
aVsea
p751
aVmechanism
p752
aVincreased
p753
aVarea
p754
aVfirmly
p755
aVexpand
p756
aVmajority
p757
aVcriminal
p758
aVcommunist
p759
aVpeasants
p760
aVcities
p761
aVkind
p762
aVgrain
p763
aVbrought
p764
aVeuropean
p765
aVinternet
p766
aVam
p767
aVoperation
p768
aVnetwork
p769
aVhand
p770
aVobjective
p771
aViraq
p772
aVmacao
p773
aVstarted
p774
aVnorth
p775
aVbeginning
p776
aVthought
p777
aVactual
p778
aVemphasized
p779
aVturn
p780
aVrather
p781
aVquestions
p782
aVprofound
p783
aVrelated
p784
aVoctober
p785
aVinternal
p786
aVcurrently
p787
aVahead
p788
aVpeninsula
p789
aVexpanding
p790
aVchallenges
p791
aVshows
p792
aVreal
p793
aVgreatly
p794
aVstance
p795
aVcommercial
p796
aVform
p797
aVraise
p798
aVlocalities
p799
aVhoped
p800
aVeffectively
p801
aVdifficulties
p802
aVoutside
p803
aVtraditional
p804
aVkorea
p805
aVdue
p806
aVcalled
p807
aVincreasing
p808
aVwant
p809
aVentry
p810
aVsaying
p811
aVremarks
p812
aVgoing
p813
aVcommand
p814
aVintegrity
p815
aVhighly
p816
aVdeputies
p817
aVhongzhi
p818
aVamount
p819
aVmeanwhile
p820
aVseek
p821
aVdecided
p822
aVeffort
p823
aVothers
p824
aVjoin
p825
aVprogram
p826
aVgradually
p827
aVtax
p828
aVdeng
p829
aVapril
p830
aVknow
p831
aVexport
p832
aVxinjiang
p833
aVopinions
p834
aVsafeguard
p835
aVtheoretical
p836
aVcaused
p837
aVstated
p838
aVperson
p839
aVcontinuously
p840
aVhaving
p841
aVcreated
p842
aVreality
p843
aVproductive
p844
aVusing
p845
aVbenefit
p846
aVstart
p847
aVinspection
p848
aVbegan
p849
aVimmediately
p850
aVcompanies
p851
aVever
p852
aVwars
p853
aVinterest
p854
aVyet
p855
aVliving
p856
aVnormal
p857
aVget
p858
aVisland
p859
aVpractical
p860
aVroad
p861
aVservices
p862
aVparticularly
p863
aVsafeguarding
p864
aVvisiting
p865
aVstaff
p866
aVwish
p867
aVlaid
p868
aVhealthy
p869
aVregarding
p870
aVrate
p871
aVthreat
p872
aVrepeatedly
p873
aVstructural
p874
aVsectors
p875
aVseriously
p876
aVmoreover
p877
aVrapidly
p878
aVenemy
p879
aVeurope
p880
aVprospects
p881
aVtechnical
p882
aVstresses
p883
aVasia-pacific
p884
aVterms
p885
aVcertainly
p886
aVspeed
p887
aVactually
p888
aVcompletely
p889
aVattack
p890
aVincreasingly
p891
aVreforms
p892
aVwent
p893
aVmorning
p894
aVaugust
p895
aV4
aVfield
p896
aVenergy
p897
aVresolve
p898
aVpreparations
p899
aVchanged
p900
aVexpected
p901
aVcrisis
p902
aVattended
p903
aVconstitution
p904
aVability
p905
aVkinds
p906
aVadopt
p907
aVexist
p908
aVquite
p909
aVaspects
p910
aVaround
p911
aVxiaoping
p912
aVclosely
p913
aVelements
p914
aVcame
p915
aVstudying
p916
aVbecoming
p917
aVholding
p918
aVdiscussion
p919
aVinvitation
p920
aVpowell
p921
aVoutstanding
p922
aVhimself
p923
aVproperly
p924
aVuniversity
p925
aVimplemented
p926
aV100
p927
aVcomprehensively
p928
aVadvance
p929
aVthink
p930
aVaccession
p931
aVconducting
p932
aVparticular
p933
aVlate
p934
aVhouse
p935
aVpurpose
p936
aVfebruary
p937
aVguarantee
p938
aVcontinually
p939
aVstandards
p940
aVwhite
p941
aVpaper
p942
aVduty
p943
aVpolitics
p944
aVadded
p945
aVuphold
p946
aVjob
p947
aVspiritual
p948
aV2
aVreally
p949
aVlet
p950
aVeducational
p951
aVagriculture
p952
aVstrengthened
p953
aVrule
p954
aVnegative
p955
aVthanks
p956
aVconcept
p957
aVrules
p958
aVterritorial
p959
aVgrand
p960
aVreiterated
p961
aVnato
p962
aVhistoric
p963
aVsigned
p964
aVseen
p965
aVconfrontation
p966
aVhigh-tech
p967
aVnearly
p968
aVdeep
p969
aVshare
p970
aVidea
p971
aVconducted
p972
aVfine
p973
aVplanes
p974
aVchief
p975
aVindustries
p976
aVresolution
p977
aVfacilities
p978
aVtoo
p979
aVdifferences
p980
aVvigorously
p981
aVsays
p982
aVprc
p983
aVstrictly
p984
aVisrael
p985
aVshort
p986
aVrevolution
p987
aVcorruption
p988
aVopposition
p989
aVfind
p990
aVagreed
p991
aVrequirement
p992
aV40
p993
aVorganized
p994
aVrich
p995
aVbest
p996
aVdrive
p997
aVjiaxuan
p998
aVjudicial
p999
aVstrive
p1000
aVtold
p1001
aVmanner
p1002
aVreceived
p1003
aVwelcome
p1004
aVforms
p1005
aVeu
p1006
aVlooking
p1007
aVattaches
p1008
aVcomrades
p1009
aVlook
p1010
aVfunctions
p1011
aVarrived
p1012
aVsino-japanese
p1013
aVlies
p1014
aVpolice
p1015
aVcomponent
p1016
aVremain
p1017
aV!
aVfavorable
p1018
aVthroughout
p1019
aVlater
p1020
aVlu
p1021
aVtremendous
p1022
aVserve
p1023
aVproposed
p1024
aVgave
p1025
aVanti-china
p1026
aVpopulation
p1027
aVmarkets
p1028
aVcourt
p1029
aVessence
p1030
aVbecame
p1031
aVwishes
p1032
aVplanning
p1033
aVpress
p1034
aVcircumstances
p1035
aVbeneficial
p1036
aVallowed
p1037
aVnatural
p1038
aVaccept
p1039
aVled
p1040
aVpressure
p1041
aVdeeply
p1042
aVconcerning
p1043
aVlaunched
p1044
aVevil
p1045
aVassistance
p1046
aVways
p1047
aV3
aVmomentum
p1048
aVfamily
p1049
aVvisits
p1050
aVbureau
p1051
aVborder
p1052
aVhigh-level
p1053
aVcounty
p1054
aVinitiative
p1055
aVentered
p1056
aVafternoon
p1057
aVbehind
p1058
aVacross
p1059
aVstudents
p1060
aVall-round
p1061
aVdone
p1062
aVstatement
p1063
aVscale
p1064
aVpromoted
p1065
aVprotect
p1066
aVcivil
p1067
aVbritain
p1068
aVanniversary
p1069
aVstyle
p1070
aVincome
p1071
aVschools
p1072
aVdemands
p1073
aVprevious
p1074
aVpush
p1075
aVscope
p1076
aVfailed
p1077
aVrepresentative
p1078
aVbudget
p1079
aVexisting
p1080
aVhandle
p1081
aVelectronic
p1082
aVguidance
p1083
aVindeed
p1084
aVcollective
p1085
aVlow
p1086
aVlot
p1087
aVprotecting
p1088
aVfront
p1089
aVmankind
p1090
aVspokesman
p1091
aVattempt
p1092
aVkim
p1093
aVolympic
p1094
aVamericans
p1095
aVsound
p1096
aVpublished
p1097
aVmoment
p1098
aVmatters
p1099
aVabsolutely
p1100
aV2001
p1101
aV30
p1102
aVeight
p1103
aVguiding
p1104
aVkeep
p1105
aVfinal
p1106
aVspecific
p1107
aVsuccessfully
p1108
aVsenior
p1109
aVpakistan
p1110
aVdirection
p1111
aVseptember
p1112
aVinstitutions
p1113
aVreadjustment
p1114
aVsomething
p1115
aVunit
p1116
aVopposed
p1117
aVbelieved
p1118
aVabide
p1119
aVcomplicated
p1120
aVdraft
p1121
aVformer
p1122
aVtechnologies
p1123
aVreduce
p1124
aVministers
p1125
aV1998
p1126
aVtelecommunications
p1127
aVproperty
p1128
aVopened
p1129
aVprice
p1130
aVyi
p1131
aVheavy
p1132
aVpassed
p1133
aVapproved
p1134
aVxiamen
p1135
aVcivilization
p1136
aVfounding
p1137
aVattending
p1138
aVprecisely
p1139
aVcampaign
p1140
aVwarm
p1141
aVcontent
p1142
aVcommunists
p1143
aVthing
p1144
aV12
p1145
aVachieving
p1146
aVinsurance
p1147
aVbenefits
p1148
aVyesterday
p1149
aVkmt
p1150
aVenvironmental
p1151
aVauthority
p1152
aVupholding
p1153
aVthough
p1154
aVgreatest
p1155
aVtrip
p1156
aVlonger
p1157
aVdpp
p1158
aVideas
p1159
aVefficiency
p1160
aVreasons
p1161
aVinclude
p1162
aV---
p1163
aVaggression
p1164
aVmeetings
p1165
aVtheme
p1166
aVaccounting
p1167
aVbelieves
p1168
aVzhao
p1169
aVestablishing
p1170
aVbesides
p1171
aVmass
p1172
aVlabor
p1173
aVdeepen
p1174
aVheads
p1175
aVfirm
p1176
aVprivate
p1177
aVconfidence
p1178
aVdistribution
p1179
aVrecognize
p1180
aV1997
p1181
aVera
p1182
aVrealizing
p1183
aVoppose
p1184
aVpla
p1185
aVjanuary
p1186
aVadvantages
p1187
aVbritish
p1188
aVdirectly
p1189
aVtruly
p1190
aVbanks
p1191
aVsafety
p1192
aVpopular
p1193
aVrun
p1194
aVcomputer
p1195
aVsent
p1196
aVprocedures
p1197
aVbroad
p1198
aVwashington
p1199
aVcrucial
p1200
aVmind
p1201
aVfinally
p1202
aVround
p1203
aVeyes
p1204
aVsolve
p1205
aVmoney
p1206
aVseeking
p1207
aVexercises
p1208
aVannounced
p1209
aVequal
p1210
aVvalue
p1211
aVurban
p1212
aVyang
p1213
aVcapacity
p1214
aVequality
p1215
aVname
p1216
aVdirector
p1217
aV5
aVsun
p1218
aVrisks
p1219
aVadjustment
p1220
aVarduous
p1221
aVregards
p1222
aVcuba
p1223
aVdiscuss
p1224
aVconcrete
p1225
aVletter
p1226
aVeastern
p1227
aVprevent
p1228
aVinvestigation
p1229
aVmethod
p1230
aVchallenge
p1231
aVtruth
p1232
aVpartnership
p1233
aVprincipal
p1234
aVtaxes
p1235
aVzhou
p1236
aVlack
p1237
aVenhancing
p1238
aVpalestine
p1239
aVunification
p1240
aVfight
p1241
aVvitality
p1242
aVtest
p1243
aVnor
p1244
aVcare
p1245
aVrepublic
p1246
aVideology
p1247
aVpoor
p1248
aVbase
p1249
aVlaunch
p1250
aVliu
p1251
aVintensify
p1252
aVlives
p1253
aVabroad
p1254
aVapplication
p1255
aVresolving
p1256
aVlanqing
p1257
aVactive
p1258
aVroom
p1259
aVpersonal
p1260
aVnavy
p1261
aVstop
p1262
aVeconomies
p1263
aVattached
p1264
aVdealing
p1265
aVtalk
p1266
aVspeaking
p1267
aVpotential
p1268
aVdeclared
p1269
aVcollision
p1270
aV23
p1271
aVdeepening
p1272
aVsector
p1273
aVexpress
p1274
aVholds
p1275
aVstock
p1276
aVsupported
p1277
aValmost
p1278
aVarrangements
p1279
aVmaterial
p1280
aVrise
p1281
aVenjoy
p1282
aVenter
p1283
aVhuge
p1284
aVpersons
p1285
aVactions
p1286
aVwife
p1287
aVbasically
p1288
aVmission
p1289
aVadhere
p1290
aVbuilt
p1291
aVsix
p1292
aVagreements
p1293
aVreported
p1294
aVexample
p1295
aVshowed
p1296
aVproven
p1297
aVleave
p1298
aVstress
p1299
aVwants
p1300
aVnovember
p1301
aVdeeds
p1302
aVinvolved
p1303
aVfulfill
p1304
aVallow
p1305
aVproduced
p1306
aVpresidential
p1307
aVwarfare
p1308
aVbonds
p1309
aVgained
p1310
aValliance
p1311
aVfiscal
p1312
aVbearing
p1313
aVclass
p1314
aVaway
p1315
aVseparatist
p1316
aVrestructuring
p1317
aVmonths
p1318
aVdivision
p1319
aVsupporting
p1320
aVcadre
p1321
aVproduct
p1322
aVshown
p1323
aVrational
p1324
aVdeath
p1325
aVimproved
p1326
aViran
p1327
aVoccasions
p1328
aVstatistics
p1329
aVmeasure
p1330
aVattach
p1331
aVsoldiers
p1332
aVfreedom
p1333
aVbackground
p1334
aVgenerally
p1335
aVafrican
p1336
aVunion
p1337
aV15
p1338
aV16
p1339
aV18
p1340
aVabm
p1341
aVharm
p1342
aVplease
p1343
aVbid
p1344
aVoften
p1345
aVtalent
p1346
aVresponsibilities
p1347
aVproposal
p1348
aVpartner
p1349
aVlimited
p1350
aVschool
p1351
aVdespite
p1352
aVcomments
p1353
aVsessions
p1354
aVreturn
p1355
aVexamination
p1356
aVattend
p1357
aVsincerity
p1358
aVlargest
p1359
aVfighting
p1360
aVchile
p1361
aVhappy
p1362
aVrevealed
p1363
aVrevised
p1364
aVaverage
p1365
aVengaged
p1366
aVstipulations
p1367
aVparliaments
p1368
aVdetermined
p1369
aVconsideration
p1370
aVatmosphere
p1371
aVwen
p1372
aVcustoms
p1373
aVpowers
p1374
aVpursuing
p1375
aVgoals
p1376
aVparticipation
p1377
aVfujian
p1378
aVlive
p1379
aVtopic
p1380
aVpromotion
p1381
aVtelevision
p1382
aVcommander
p1383
aVmonth
p1384
aVsuffered
p1385
aVcommitted
p1386
aVconsultations
p1387
aVexperiences
p1388
aVready
p1389
aVdelivered
p1390
aVpowerful
p1391
aVbases
p1392
aVwelcomed
p1393
aVcordial
p1394
aVsupreme
p1395
aVhome
p1396
aVvast
p1397
aVtype
p1398
aVreconnaissance
p1399
aVbalance
p1400
aVregarded
p1401
aVfailure
p1402
aVmao
p1403
aVjudging
p1404
aVgrassroots
p1405
aVtown
p1406
aVresponse
p1407
aV24
p1408
aV22
p1409
aV29
p1410
aVgap
p1411
aVbill
p1412
aVdiscipline
p1413
aVsource
p1414
aVgoods
p1415
aVconstant
p1416
aVformulated
p1417
aVancient
p1418
aVtext
p1419
aVdisarmament
p1420
aVnevertheless
p1421
aVdeployment
p1422
aVme
p1423
aVceremony
p1424
aVtibetan
p1425
aVparticipating
p1426
aVspread
p1427
aVvietnam
p1428
aVapec
p1429
aVdiscussed
p1430
aVmutually
p1431
aVstrongly
p1432
aVcults
p1433
aVfeel
p1434
aVreach
p1435
aVnothing
p1436
aVanalysis
p1437
aVdegree
p1438
aVconsumption
p1439
aVpermanent
p1440
aVrespects
p1441
aVsupports
p1442
aVlinked
p1443
aVensuring
p1444
aVprovisions
p1445
aVsmoothly
p1446
aVlead
p1447
aVconclusion
p1448
aVspoke
p1449
aVplanned
p1450
aVworked
p1451
aVsplit
p1452
aVson
p1453
aVlaunching
p1454
aVchoice
p1455
aVvalues
p1456
aVconscientiously
p1457
aVturned
p1458
aVpaying
p1459
aVcondition
p1460
aV6
aVfound
p1461
aVpacific
p1462
aVconsistently
p1463
aVpoverty
p1464
aVengage
p1465
aVillegal
p1466
aVoccurred
p1467
aVconcerted
p1468
aVless
p1469
aVavoid
p1470
aVsearch
p1471
aVordinary
p1472
aVeventually
p1473
aVcrimes
p1474
aVstandard
p1475
aVexchanged
p1476
aVhigh-quality
p1477
aVbattle
p1478
aVdisplayed
p1479
aVimpossible
p1480
aVamerica
p1481
aVsmuggling
p1482
aVzedong
p1483
aVsite
p1484
aVwon
p1485
aVurgent
p1486
aVsimilar
p1487
aVfocused
p1488
aVannette
p1489
aVwritten
p1490
aVcorrectly
p1491
aVneither
p1492
aVexpansion
p1493
aVplenary
p1494
aVcall
p1495
aVkaohsiung
p1496
aVmedical
p1497
aVexports
p1498
aVseven
p1499
aVcontemporary
p1500
aVproposals
p1501
aVcontradictions
p1502
aVgrowing
p1503
aVfinance
p1504
aVinnovations
p1505
aVrepresent
p1506
aVchildren
p1507
aVafrica
p1508
aVassociation
p1509
aVnetworks
p1510
aVindividual
p1511
aVannual
p1512
aVsolid
p1513
aVautonomous
p1514
aVchi
p1515
aVresolved
p1516
aVecological
p1517
aVexcellent
p1518
aVtalking
p1519
aVapart
p1520
aVsuggestions
p1521
aVbangzao
p1522
aVhighest
p1523
aVdiplomacy
p1524
aVintelligence
p1525
aVnumerous
p1526
aVmoving
p1527
aVinstead
p1528
aVpriority
p1529
aVgenerations
p1530
aVprovinces
p1531
aVearnestly
p1532
aVuntil
p1533
aVfair
p1534
aVmanufacturing
p1535
aVraised
p1536
aVarats
p1537
aVdate
p1538
aVconcentrate
p1539
aVjianxing
p1540
aVthailand
p1541
aVgone
p1542
aVconsider
p1543
aVrespective
p1544
aVseize
p1545
aVcommunications
p1546
aVsenate
p1547
aVrespectively
p1548
aVdoubt
p1549
aVenforcement
p1550
aVfigures
p1551
aVnorth-south
p1552
aVsmooth
p1553
aVplaced
p1554
aVpalestinian
p1555
aV1995
p1556
aVfairly
p1557
aVconducive
p1558
aVunable
p1559
aVindependent
p1560
aVpost
p1561
aVproduce
p1562
aVbegin
p1563
aVundertakings
p1564
aVsteady
p1565
aVgerman
p1566
aVorientation
p1567
aVtreatment
p1568
aVlosses
p1569
aVevening
p1570
aVask
p1571
aVstation
p1572
aVexecutive
p1573
aVguide
p1574
aVtransformation
p1575
aVrequired
p1576
aVwin
p1577
aVsanctions
p1578
aVhands
p1579
aVshi
p1580
aVapproval
p1581
aVsources
p1582
aVcoordination
p1583
aVaffect
p1584
aVturning
p1585
aV17
p1586
aVbriefed
p1587
aVpersonally
p1588
aVlanding
p1589
aVmarxist
p1590
aVinstitute
p1591
aVfrance
p1592
aVfrequent
p1593
aVtreasury
p1594
aVextensive
p1595
aVfall
p1596
aVmovement
p1597
aVoperating
p1598
aVcoal
p1599
aV8
aVintegration
p1600
aVeliminate
p1601
aVcontinuing
p1602
aVbody
p1603
aVexperienced
p1604
aVdrawn
p1605
aVexists
p1606
aVtests
p1607
aVconsistent
p1608
aVpath
p1609
aVconsolidate
p1610
aVmillennium
p1611
aVthoroughly
p1612
aVfaced
p1613
aVeverything
p1614
aVhead
p1615
aVsustained
p1616
aVneighbors
p1617
aVstands
p1618
aVfigure
p1619
aVrevenue
p1620
aVrequire
p1621
aVg-8
p1622
aVgrasp
p1623
aVsettlement
p1624
aVdecisions
p1625
aVknown
p1626
aVactivity
p1627
aVflight
p1628
aVessential
p1629
aVraising
p1630
aVwarning
p1631
aVwomen
p1632
aVhence
p1633
aVhegemonism
p1634
aVgain
p1635
aVoperational
p1636
aVemployment
p1637
aVnationalities
p1638
aVruling
p1639
aVbringing
p1640
aVartillery
p1641
aVencourage
p1642
aVadapt
p1643
aVlessons
p1644
aVdebt
p1645
aVcommerce
p1646
aV't
p1647
aVentering
p1648
aVgoverning
p1649
aVenjoys
p1650
aVexpression
p1651
aVoriginal
p1652
aVprior
p1653
aVlearn
p1654
aVembassy
p1655
aVfollowers
p1656
aVbelief
p1657
aVsubmarines
p1658
aVexpanded
p1659
aVmakes
p1660
aVhainan
p1661
aVsurely
p1662
aVworldwide
p1663
aVdrawing
p1664
aVcrack
p1665
aVvariety
p1666
aV1992
p1667
aVinterview
p1668
aVbank
p1669
aVtarget
p1670
aVcontents
p1671
aVinvolving
p1672
aVhuang
p1673
aVduties
p1674
aVcontact
p1675
aVunified
p1676
aVbound
p1677
aVzone
p1678
aVpresented
p1679
aVp
aVelected
p1680
aVtradition
p1681
aVgreetings
p1682
aVpreferential
p1683
aVsolving
p1684
aVexcellency
p1685
aVevent
p1686
aVrevolutionary
p1687
aVreflected
p1688
aVobviously
p1689
aVin-depth
p1690
aVpoliticians
p1691
aVproviding
p1692
aVeffect
p1693
aVphenomena
p1694
aVtell
p1695
aVarrested
p1696
aVregular
p1697
aVentitled
p1698
aVtargets
p1699
aVmechanisms
p1700
aVcontinuous
p1701
aVdeclaration
p1702
aVoil
p1703
aVtotally
p1704
aVaspect
p1705
aVassets
p1706
aVstarting
p1707
aV20th
p1708
aVairport
p1709
aVcoming
p1710
aV21
p1711
aVeveryone
p1712
aVengaging
p1713
aVextended
p1714
aVgoodwill
p1715
aVjoining
p1716
aVsupply
p1717
aVlaos
p1718
aVopenly
p1719
aVper
p1720
aVdalai
p1721
aVputting
p1722
aVaccount
p1723
aVstationed
p1724
aVclaimed
p1725
aVproper
p1726
aVguard
p1727
aVvictory
p1728
aVsigning
p1729
aVweak
p1730
aVrely
p1731
aVfocus
p1732
aVcharge
p1733
aVposts
p1734
aVsatisfaction
p1735
aVaccepted
p1736
aVcalls
p1737
aVparticipants
p1738
aVspeeding
p1739
aVdecember
p1740
aVlight
p1741
aVrepublican
p1742
aVintention
p1743
aVstrike
p1744
aVpursue
p1745
aVfeeling
p1746
aVparticipate
p1747
aVmen
p1748
aVnationwide
p1749
aVaccelerate
p1750
aVstudies
p1751
aVoriginally
p1752
aValbright
p1753
aVjia
p1754
aVcivilian
p1755
aVrealization
p1756
aVresource
p1757
aVworried
p1758
aVaroused
p1759
aVenable
p1760
aVcosts
p1761
aVreturned
p1762
aVmarriage
p1763
aVrenminbi
p1764
aVappropriate
p1765
aVguideline
p1766
aVdefinitely
p1767
aVsend
p1768
aVassembly
p1769
aVrealized
p1770
aVmayor
p1771
aVsecurities
p1772
aVtrue
p1773
aVtrouble
p1774
aVshares
p1775
aVsincerely
p1776
aVprove
p1777
aVcar
p1778
aVended
p1779
aVpublicity
p1780
aVpattern
p1781
aVisraeli
p1782
aVcomes
p1783
aVproved
p1784
aVoutput
p1785
aVtrying
p1786
aVmoves
p1787
aVshenzhen
p1788
aVvigilance
p1789
aVye
p1790
aVdescribed
p1791
aVconflict
p1792
aVambassador
p1793
aVremains
p1794
aVappointed
p1795
aVfarm
p1796
aVmentioned
p1797
aVexactly
p1798
aVlegitimate
p1799
aVgeorge
p1800
aVthanked
p1801
aVparts
p1802
aVfrequently
p1803
aVprominent
p1804
aVlost
p1805
aVrescue
p1806
aVmoral
p1807
aVanswer
p1808
aVminority
p1809
aVcrew
p1810
aVovercome
p1811
aVfeatures
p1812
aVbad
p1813
aVsubject
p1814
aVsave
p1815
aV200
p1816
aVtrends
p1817
aVword
p1818
aVgrow
p1819
aVman
p1820
aVpeasant
p1821
aVimperative
p1822
aVdangerous
p1823
aVacts
p1824
aV27
p1825
aVterm
p1826
aVleast
p1827
aVcontrary
p1828
aVsignificant
p1829
aVremove
p1830
aVopposing
p1831
aVexpert
p1832
aVurgency
p1833
aVourselves
p1834
aVkuomintang
p1835
aVgiving
p1836
aVhonor
p1837
aVobvious
p1838
aVwinning
p1839
aVdefend
p1840
aVrequest
p1841
aVenhanced
p1842
aVqiyue
p1843
aVotherwise
p1844
aVreporting
p1845
aVrepeated
p1846
aVfeelings
p1847
aVsciences
p1848
aVtourism
p1849
aVdriving
p1850
aVwanted
p1851
aVsituations
p1852
aVcriticized
p1853
aVresist
p1854
aVapproach
p1855
aVcomplex
p1856
aVmother
p1857
aVcoastal
p1858
aVruihuan
p1859
aVhaotian
p1860
aVfarmers
p1861
aVpilot
p1862
aVfollow
p1863
aVproceed
p1864
aVframework
p1865
aVkosovo
p1866
aVcreating
p1867
aVdemonstrated
p1868
aVarticles
p1869
aVintegrated
p1870
aVacademy
p1871
aVfavor
p1872
aVunprecedented
p1873
aVtransfer
p1874
aVbook
p1875
aVabsolute
p1876
aVchannels
p1877
aVwage
p1878
aVextent
p1879
aVdialogues
p1880
aVcitizens
p1881
aVreducing
p1882
aVadvancing
p1883
aVsar
p1884
aVliberation
p1885
aVaffecting
p1886
aVformed
p1887
aVsingapore
p1888
aVgdp
p1889
aVrest
p1890
aVcompetitiveness
p1891
aVjiabao
p1892
aVagree
p1893
aVreplied
p1894
aVwarmly
p1895
aVsell
p1896
aVspring
p1897
aVage
p1898
aVindian
p1899
aVsurvey
p1900
aVresidents
p1901
aVperfect
p1902
aVscene
p1903
aVdocuments
p1904
aVrestrictions
p1905
aVcompared
p1906
aVtenth
p1907
aVworth
p1908
aV1996
p1909
aVtheories
p1910
aVinterfere
p1911
aVaffected
p1912
aVhosted
p1913
aVtian
p1914
aVcompleted
p1915
aVgermany
p1916
aVmobilization
p1917
aVstraits
p1918
aVconstructive
p1919
aVguo
p1920
aVsending
p1921
aVpatriotic
p1922
aVmarked
p1923
aVstatements
p1924
aVentirely
p1925
aVmessage
p1926
aVxu
p1927
aVmr.
p1928
aVlearning
p1929
aVtakes
p1930
aV7
aVbusinessmen
p1931
aVsyria
p1932
aVlatest
p1933
aVpace
p1934
aVbelong
p1935
aVshowing
p1936
aVdraw
p1937
aVzhejiang
p1938
aVairspace
p1939
aVadvocated
p1940
aVagenda
p1941
aVaspiration
p1942
aVinstance
p1943
aVdeploy
p1944
aVminds
p1945
aVyuxi
p1946
aVfierce
p1947
aVlikely
p1948
aVguests
p1949
aVcriminals
p1950
aVpurchase
p1951
aVresume
p1952
aVtreaties
p1953
aVattempts
p1954
aVcontribution
p1955
aVpractices
p1956
aVzeng
p1957
aVfelt
p1958
aVanswered
p1959
aVpraised
p1960
aVdevelopments
p1961
aVemerged
p1962
aVanyone
p1963
aVconsultation
p1964
aVsincere
p1965
aVcolleges
p1966
aVindustrialization
p1967
aVnumbers
p1968
aVplaying
p1969
aVexistence
p1970
aV25
p1971
aVformulating
p1972
aVeasily
p1973
aVdown-to-earth
p1974
aVemphasize
p1975
aVgrass-roots
p1976
aVexploration
p1977
aV31
p1978
aVcomposed
p1979
aVasean
p1980
aVorgan
p1981
aVglorious
p1982
aVwelcoming
p1983
aVhelped
p1984
aVscholars
p1985
aVideals
p1986
aVquickly
p1987
aVweaponry
p1988
aVwidespread
p1989
aVperform
p1990
aVreforming
p1991
aVnewly
p1992
aVfree
p1993
aVtop
p1994
aVseminar
p1995
aVthorough
p1996
aVchrts
p1997
aVgames
p1998
aVteachers
p1999
aVangle
p2000
aVimpression
p2001
aVupheld
p2002
aVbegun
p2003
aVcrime
p2004
aVreview
p2005
aVmacroeconomic
p2006
aVmodel
p2007
aVsong
p2008
aVentourage
p2009
aVsum
p2010
aVpntr
p2011
aVutilization
p2012
aVforeign-funded
p2013
aVrelying
p2014
aVheadway
p2015
aV9
aVlower
p2016
aVtry
p2017
aVamended
p2018
aVuniversities
p2019
aVsettling
p2020
aVjournalists
p2021
aVtension
p2022
aVconflicts
p2023
aVcloser
p2024
aVclosed
p2025
aVvolume
p2026
aVrecord
p2027
aVbelow
p2028
aVwrong
p2029
aVhidden
p2030
aVtownship
p2031
aVinterfering
p2032
aVlisted
p2033
aVwisdom
p2034
aVemphatically
p2035
aVaccident
p2036
aVownership
p2037
aVimposed
p2038
aVdesire
p2039
aVinside
p2040
aVstudied
p2041
aVdecades
p2042
aVsquare
p2043
aVribao
p2044
aVjobs
p2045
aVnewspaper
p2046
aVexpenditures
p2047
aVsurveillance
p2048
aVprincipled
p2049
aVregiment
p2050
aVrefuse
p2051
aVresolute
p2052
aVscheduled
p2053
aVparents
p2054
aVlink
p2055
aVsino-russian
p2056
aVfighter
p2057
aVtimely
p2058
aVrace
p2059
aVelement
p2060
aVshortage
p2061
aVadherence
p2062
aVlegislative
p2063
aVbriefing
p2064
aVforth
p2065
aVdisputes
p2066
aVdiscussions
p2067
aVaid
p2068
aVboard
p2069
aVnight
p2070
aVdead
p2071
aVrejuvenation
p2072
aVstronger
p2073
aVreception
p2074
aVtrial
p2075
aVincidents
p2076
aVheard
p2077
aVtypical
p2078
aVheretical
p2079
aVinvestors
p2080
aVground
p2081
aVsplittist
p2082
aVfruitful
p2083
aVexternal
p2084
aVdocument
p2085
aVcharges
p2086
aVexposed
p2087
aVwitnessed
p2088
aVfu
p2089
aVyu
p2090
aVstopped
p2091
aVphenomenon
p2092
aVadhering
p2093
aVsensitive
p2094
aVfleet
p2095
aVolder
p2096
aVdamage
p2097
aVguangdong
p2098
aVanti-corruption
p2099
aVurged
p2100
aVdanger
p2101
aVmanage
p2102
aVmonitoring
p2103
aVattain
p2104
aVcruise
p2105
aVconsequences
p2106
aVaccomplishing
p2107
aVindignation
p2108
aVrecognized
p2109
aVmanaging
p2110
aVuniversal
p2111
aVcheng
p2112
aVsorts
p2113
aVmexico
p2114
aVii
p2115
aVearlier
p2116
aVchong-il
p2117
aVperformance
p2118
aVenthusiasm
p2119
aVrunning
p2120
aVtackle
p2121
aVreturning
p2122
aVperspective
p2123
aVsacred
p2124
aV28
p2125
aVdifficulty
p2126
aVhumanitarian
p2127
aVcreativity
p2128
aVexamples
p2129
aVreconciliation
p2130
aVtrain
p2131
aVfrank
p2132
aVabolished
p2133
aVworks
p2134
aVintroduced
p2135
aVexceeded
p2136
aVguidelines
p2137
aVselected
p2138
aVappraisal
p2139
aVprimary
p2140
aVwatch
p2141
aVcorrupt
p2142
aVfollowed
p2143
aVkoizumi
p2144
aVsetting
p2145
aVhandled
p2146
aVtrillion
p2147
aVpredicted
p2148
aVreaction
p2149
aVsuccesses
p2150
aVcontract
p2151
aV500
p2152
aVcareful
p2153
aVstrict
p2154
aVjun
p2155
aVreflect
p2156
aVmight
p2157
aVhealth
p2158
aVmentality
p2159
aVsucceed
p2160
aVvillage
p2161
aVnorthern
p2162
aVrange
p2163
aVmountains
p2164
aVcharacteristic
p2165
aVhelping
p2166
aVcracking
p2167
aVbreakthroughs
p2168
aVconveyed
p2169
aVtactics
p2170
aVreplace
p2171
aVeffects
p2172
aVenormous
p2173
aVwillingness
p2174
aVtung
p2175
aVmalta
p2176
aVemphasis
p2177
aVmunicipal
p2178
aVsteps
p2179
aVexhibition
p2180
aVteam
p2181
aValone
p2182
aVaccomplished
p2183
aVgood-neighborly
p2184
aVthereby
p2185
aVvote
p2186
aVpeacekeeping
p2187
aVsurplus
p2188
aVpreparatory
p2189
aVpersistently
p2190
aVsummer
p2191
aV60
p2192
aVwartime
p2193
aVsection
p2194
aVobjectives
p2195
aVdoor
p2196
aVurbanization
p2197
aVappreciation
p2198
aVdetermines
p2199
aVriver
p2200
aVyongtu
p2201
aVfire
p2202
aVfocal
p2203
aVspending
p2204
aVfresh
p2205
aVpracticing
p2206
aVoutlook
p2207
aVrising
p2208
aVvigorous
p2209
aVcabinet
p2210
aVincreases
p2211
aVaccelerating
p2212
aVamendment
p2213
aVcounties
p2214
aVfunction
p2215
aVred
p2216
aVpursuit
p2217
aVforced
p2218
aVlatter
p2219
aVphase
p2220
aVreserve
p2221
aVtons
p2222
aVfamilies
p2223
aVdevoted
p2224
aVturns
p2225
aVcost
p2226
aVserving
p2227
aVacknowledge
p2228
aVtried
p2229
aVcard
p2230
aVtaxation
p2231
aVfifth
p2232
aVinformationization
p2233
aVobserve
p2234
aVnamely
p2235
aVcommuniques
p2236
aVsixth
p2237
aVintervention
p2238
aVmoved
p2239
aVprecondition
p2240
aVsplitting
p2241
aVaimed
p2242
aVtowards
p2243
aVmultilateral
p2244
aVjustice
p2245
aVshift
p2246
aVblair
p2247
aVpillar
p2248
aVdepth
p2249
aVrequires
p2250
aVplays
p2251
aVreflects
p2252
aVlocated
p2253
aVbanquet
p2254
aVmode
p2255
aVpursued
p2256
aVpartners
p2257
aVluo
p2258
aVsurface
p2259
aVunderground
p2260
aVdestruction
p2261
aVvirtual
p2262
aVburden
p2263
aVlose
p2264
aVshen
p2265
aVadditional
p2266
aVcourts
p2267
aVacting
p2268
aVfriends
p2269
aVsichuan
p2270
aVautonomy
p2271
aVbelarus
p2272
aVmean
p2273
aVstepping
p2274
aVcoast
p2275
aVappeared
p2276
aVobtained
p2277
aVaviation
p2278
aVnear
p2279
aVprograms
p2280
aVsettled
p2281
aVinvestments
p2282
aVpersonages
p2283
aVdignity
p2284
aVauditing
p2285
aVassume
p2286
aVmerely
p2287
aVtokyo
p2288
aVinterference
p2289
aV11
p2290
aV13
p2291
aV14
p2292
aVawareness
p2293
aVinfrastructure
p2294
aVcapable
p2295
aVpressing
p2296
aVnarcotics
p2297
aVforget
p2298
aVdestroyers
p2299
aVblood
p2300
aVonto
p2301
aVpositions
p2302
aVregulation
p2303
aVpushing
p2304
aVukraine
p2305
aVencountered
p2306
aVsuperiority
p2307
aVpollution
p2308
aVorganizational
p2309
aVintensified
p2310
aVvehicles
p2311
aVrivers
p2312
aVreserves
p2313
aVlines
p2314
aVinstitutional
p2315
aVsatisfied
p2316
aVwarships
p2317
aVconcerns
p2318
aVbear
p2319
aVfixed
p2320
aVhost
p2321
aVbiggest
p2322
aVminutes
p2323
aVcorporation
p2324
aVpreserving
p2325
aVpercentage
p2326
aVeffectiveness
p2327
aVorderly
p2328
aVradio
p2329
aVcao
p2330
aVsubmarine
p2331
aVsatellite
p2332
aVarab
p2333
aVexisted
p2334
aVbackward
p2335
aVremarkable
p2336
aVfederation
p2337
aVgoes
p2338
aVvital
p2339
aVmotions
p2340
aVultimately
p2341
aVreleased
p2342
aVconsidered
p2343
aVfederal
p2344
aVcontinuation
p2345
aVendeavor
p2346
aVregime
p2347
aVchanging
p2348
aVviolent
p2349
aVrose
p2350
aVseems
p2351
aVshrine
p2352
aVdetermine
p2353
aVfeudal
p2354
aVnaval
p2355
aVknows
p2356
aVinstructions
p2357
aVformulate
p2358
aVdouble
p2359
aVhit
p2360
aVsustainable
p2361
aVprerequisite
p2362
aVunderstood
p2363
aVmedium-sized
p2364
aVstick
p2365
aVconcluded
p2366
aVapply
p2367
aVparliament
p2368
aVgetting
p2369
aVarafat
p2370
aVships
p2371
aVchoose
p2372
aVyork
p2373
aVafraid
p2374
aVneighboring
p2375
aVrenmin
p2376
aVobtain
p2377
aVrare
p2378
aVgranting
p2379
aVcriticism
p2380
aVexplained
p2381
aVconcepts
p2382
aVsymposium
p2383
aVskills
p2384
aVreversion
p2385
aVthreatened
p2386
aVshaanxi
p2387
aVmaster
p2388
aVdrought
p2389
aVrelease
p2390
aVdisaster
p2391
aVeasy
p2392
aVsurvival
p2393
aVbirth
p2394
aVunique
p2395
aVbattlefield
p2396
aVgrasping
p2397
aVresulted
p2398
aVcongratulations
p2399
aVcambodia
p2400
aVboost
p2401
aVguangzhou
p2402
aVlove
p2403
aVdivided
p2404
aVvarieties
p2405
aVinternationally
p2406
aVowing
p2407
aVdisasters
p2408
aVrumsfeld
p2409
aVnote
p2410
aVaffirmed
p2411
aVfar-reaching
p2412
aVequipped
p2413
aVdispute
p2414
aVvision
p2415
aVundermine
p2416
aVcombined
p2417
aVtwists
p2418
aVtraffic
p2419
aVsatisfactory
p2420
aVimage
p2421
aVtv
p2422
aVjoined
p2423
aVhours
p2424
aVselect
p2425
aVkeeping
p2426
aVbeautiful
p2427
aVenergetically
p2428
aVprotectionism
p2429
aVinterviewed
p2430
aVimmediate
p2431
aVfactor
p2432
aVadhered
p2433
aVsef
p2434
aV15th
p2435
aVfund
p2436
aVtowns
p2437
aVinput
p2438
aVformal
p2439
aVindividuals
p2440
aVreligion
p2441
aVanything
p2442
aVpresided
p2443
aVintegrating
p2444
aVweaken
p2445
aVundertaking
p2446
aVfundamentally
p2447
aVfalse
p2448
aVextend
p2449
aVch
p2450
aVdegrees
p2451
aVexpounded
p2452
aVindonesia
p2453
aVaccompanied
p2454
aVloans
p2455
aVtwo-state
p2456
aVregulatory
p2457
aVallies
p2458
aV1991
p2459
aV1990
p2460
aV1994
p2461
aVcited
p2462
aVindicates
p2463
aVbombing
p2464
aVbreak
p2465
aVde
p2466
aVw.
p2467
aVobserved
p2468
aVdozens
p2469
aVborn
p2470
aVpromises
p2471
aVscored
p2472
aVshared
p2473
aVaccelerated
p2474
aVfurthermore
p2475
aVinevitably
p2476
aV'en
p2477
aVfriend
p2478
aVremained
p2479
aVhsieh
p2480
aVprofessional
p2481
aVpunished
p2482
aVeditorial
p2483
aVsevere
p2484
aVcongressmen
p2485
aVvaluable
p2486
aVconservative
p2487
aVdeficit
p2488
aVprotests
p2489
aV600
p2490
aVcountermeasures
p2491
aVpool
p2492
aVpledged
p2493
aVconviction
p2494
aViraqi
p2495
aVrespected
p2496
aVdream
p2497
aVdisclosed
p2498
aVmobile
p2499
aVflights
p2500
aVprobably
p2501
aVutmost
p2502
aVuses
p2503
aVguarantees
p2504
aVgame
p2505
aVfuzhou
p2506
aVundergone
p2507
aVasem
p2508
aVnationals
p2509
aVdelegates
p2510
aVdata
p2511
aVaffair
p2512
aVjoins
p2513
aVprecious
p2514
aVexpenditure
p2515
aVaccused
p2516
aVpiece
p2517
aVstar
p2518
aVteaching
p2519
aVcalm
p2520
aVunemployed
p2521
aVmine
p2522
aVconsumer
p2523
aVban
p2524
aVprosperous
p2525
aVprotocol
p2526
aVassigned
p2527
aVfighters
p2528
aVislands
p2529
aVlien
p2530
aVinitial
p2531
aVfell
p2532
aVprofits
p2533
aVstriving
p2534
aVtalked
p2535
aVeverybody
p2536
aVaspirations
p2537
aVkilled
p2538
aVlittle
p2539
aVmoscow
p2540
aVundoubtedly
p2541
aVe-commerce
p2542
aVupgrading
p2543
aVdeployed
p2544
aVdesignated
p2545
aVtour
p2546
aVcritical
p2547
aVexpressing
p2548
aVdecisive
p2549
aVcultivation
p2550
aVcontrolling
p2551
aVstubborn
p2552
aVminimum
p2553
aV26
p2554
aVfunding
p2555
aVdepending
p2556
aVpremise
p2557
aVsimply
p2558
aVgas
p2559
aVprices
p2560
aVitaly
p2561
aVlesson
p2562
aVsingle
p2563
aV2005
p2564
aV2008
p2565
aVmobilize
p2566
aVremark
p2567
aVreunifying
p2568
aVfulfillment
p2569
aVcollection
p2570
aVmention
p2571
aVdemonstration
p2572
aVunless
p2573
aVselection
p2574
aVcoexistence
p2575
aVtough
p2576
aVconvey
p2577
aVperiods
p2578
aVbrilliant
p2579
aVanalysts
p2580
aVcasualties
p2581
aVamid
p2582
aVexpectations
p2583
aVlasting
p2584
aVhearing
p2585
aVfashion
p2586
aVsoutheast
p2587
aVnormalization
p2588
aVright-wing
p2589
aVproceeding
p2590
aVattacks
p2591
aVsteadily
p2592
aVtransform
p2593
aVyounger
p2594
aVadvantage
p2595
aVport
p2596
aVpleased
p2597
aVthousands
p2598
aVspeaks
p2599
aVexclusive
p2600
aVcoordinated
p2601
aVhappened
p2602
aVrealistic
p2603
aVattracted
p2604
aVdispatched
p2605
aVmotion
p2606
aVwin-win
p2607
aVmillions
p2608
aVdistrict
p2609
aVproud
p2610
aVdiscussing
p2611
aVcommitments
p2612
aVhardly
p2613
aVrelies
p2614
aVguided
p2615
aVprovides
p2616
aVjul
p2617
aVseparate
p2618
aVincluded
p2619
aVdesign
p2620
aVsuddenly
p2621
aVchina-us
p2622
aVguam
p2623
aVbangguo
p2624
aVoptical
p2625
aVexert
p2626
aVcompetitive
p2627
aVdenghui
p2628
aVrefused
p2629
aVentrepreneurs
p2630
aVyasukuni
p2631
aVshandong
p2632
aVrally
p2633
aVgang
p2634
aVmainstream
p2635
aVexplore
p2636
aVunremitting
p2637
aV&
aVstruggles
p2638
aVviolating
p2639
aVsatellites
p2640
aVpromise
p2641
aVpublication
p2642
aVzxs
p2643
aVhegemonist
p2644
aVlooked
p2645
aVvigor
p2646
aVcapabilities
p2647
aVidentical
p2648
aVcarrier
p2649
aVaegis
p2650
aVxiao
p2651
aVprofessor
p2652
aVhi-tech
p2653
aVzts
p2654
aVfail
p2655
aVscore
p2656
aVpreserve
p2657
aVcastro
p2658
aVacademic
p2659
aVease
p2660
aVbeings
p2661
aVforming
p2662
aVmodels
p2663
aVdiscovered
p2664
aVsign
p2665
aVhegemonic
p2666
aVbehalf
p2667
aVjin
p2668
aVbreakthrough
p2669
aVwannian
p2670
aVmassive
p2671
aVconcentrated
p2672
aVs
aVvajpayee
p2673
aVengineering
p2674
aVrevision
p2675
aVmonopoly
p2676
aVcauses
p2677
aVpass
p2678
aVscientists
p2679
aVmori
p2680
aVbiden
p2681
aVweek
p2682
aVslowdown
p2683
aVministerial
p2684
aVdepartmental
p2685
aVunequal
p2686
aVcover
p2687
aVadheres
p2688
aVconnection
p2689
aVpalestinian-israeli
p2690
aVextreme
p2691
aVhoping
p2692
aVvictims
p2693
aVhigh-ranking
p2694
aVperformed
p2695
aVprimarily
p2696
aVcrackdown
p2697
aVformalism
p2698
aVarmament
p2699
aVlogistics
p2700
aVgathered
p2701
aVinvolves
p2702
aVfake
p2703
aVbent
p2704
aVrevising
p2705
aVolympics
p2706
aVfamiliar
p2707
aVinvited
p2708
aVdrug
p2709
aVbeliefs
p2710
aVadjusted
p2711
aVunceasingly
p2712
aVcombine
p2713
aVrevise
p2714
aVsoftware
p2715
aVcommitment
p2716
aVcultivated
p2717
aVnaturally
p2718
aVitems
p2719
aVadministering
p2720
aVseparated
p2721
aVaware
p2722
aVcriticizing
p2723
aVcites
p2724
aVlay
p2725
aVreasonable
p2726
aVorganize
p2727
aVsubjects
p2728
aVgrave
p2729
aVaccord
p2730
aVguangsheng
p2731
aVclimate
p2732
aVspeak
p2733
aVdrafting
p2734
aVpatent
p2735
aVkept
p2736
aVresettlement
p2737
aVadding
p2738
aVdenied
p2739
aVlegislation
p2740
aVsovereign
p2741
aVaccords
p2742
aVdissatisfied
p2743
aVprotective
p2744
aVappeal
p2745
aVentrance
p2746
aVstimulating
p2747
aVcriterion
p2748
aVsouthern
p2749
aVhall
p2750
aVprompted
p2751
aVtextbook
p2752
aVchecked
p2753
aVhouseholds
p2754
aVprofessionals
p2755
aVmaterials
p2756
aVimport
p2757
aVanalyzed
p2758
aVtalented
p2759
aVobservers
p2760
aVreconnaisance
p2761
aVsoil
p2762
aVship
p2763
aVcoordinate
p2764
aVt
aVarabia
p2765
aVfast
p2766
aVassumed
p2767
aVcirculation
p2768
aVself-immolation
p2769
aVrogue
p2770
aVenhancement
p2771
aVstages
p2772
aVconventional
p2773
aVproducing
p2774
aVprocuratorial
p2775
aVnine
p2776
aVbudgets
p2777
aVpushed
p2778
aVliaison
p2779
aVfood
p2780
aVxiang
p2781
aVguaranteeing
p2782
aVhundred
p2783
aVselling
p2784
aVgrew
p2785
aVsentences
p2786
aVlie
p2787
aVlin
p2788
aVintercepting
p2789
aVfamous
p2790
aVinterim
p2791
aVsecrets
p2792
aVwhatever
p2793
aVcollected
p2794
aVsoberly
p2795
aVexercising
p2796
aVkyrgyzstan
p2797
aVregistered
p2798
aVrecognition
p2799
aVeverywhere
p2800
aV80th
p2801
aVhuaicheng
p2802
aVformally
p2803
aVarrangement
p2804
aVcircular
p2805
aVouter
p2806
aVmar
p2807
aVpractitioners
p2808
aVoutline
p2809
aVsubmitted
p2810
aVdalian
p2811
aVrelatives
p2812
aVattained
p2813
aVyugoslavia
p2814
aVlimits
p2815
aVcongresses
p2816
aVtreat
p2817
aVcorresponding
p2818
aVspeaker
p2819
aVfate
p2820
aVpayments
p2821
aVmonetary
p2822
aVnoticed
p2823
aVcruel
p2824
aVstay
p2825
aVappoint
p2826
aVfronts
p2827
aVpromulgated
p2828
aVsolution
p2829
aVcredit
p2830
aVadopting
p2831
aVstressing
p2832
aVcombination
p2833
aVtrading
p2834
aVu.s.
p2835
aVtransnational
p2836
aVsolemn
p2837
aVwithstand
p2838
aVdebts
p2839
aVzones
p2840
aVbrazil
p2841
aVsuggested
p2842
aVwebsite
p2843
aVhunan
p2844
aVcharacter
p2845
aVshoulder
p2846
aVshort-term
p2847
aVhubei
p2848
aVintellectual
p2849
aVdaily
p2850
aVanti-ballistic
p2851
aVmanaged
p2852
aVdepend
p2853
aVitem
p2854
aVexploitation
p2855
aVtaipei
p2856
aVuseful
p2857
aVwealth
p2858
aVsphere
p2859
aVchemical
p2860
aVstaying
p2861
aVsetbacks
p2862
aVsooner
p2863
aVlanguage
p2864
aVcorporations
p2865
aVparticipated
p2866
aV19
p2867
aVgathering
p2868
aVtopics
p2869
aVanswering
p2870
aVcuban
p2871
aVmark
p2872
aVoffered
p2873
aVsubstantive
p2874
aVgrim
p2875
aVserves
p2876
aVeither
p2877
aVserved
p2878
aVorganizing
p2879
aVdeepened
p2880
aVenough
p2881
aVdrills
p2882
aVsaudi
p2883
aVtiananmen
p2884
aVstrategies
p2885
aVheartfelt
p2886
aVsuffer
p2887
aVpilots
p2888
aVpark
p2889
aVorders
p2890
aVobligations
p2891
aVcomplementary
p2892
aVgan
p2893
aVelections
p2894
aVspent
p2895
aVspend
p2896
aVprevention
p2897
aVprofoundly
p2898
aVshape
p2899
aVfollows
p2900
aVmagnificent
p2901
aVdirected
p2902
aVprepared
p2903
aVcontingent
p2904
aVresolutions
p2905
aVupcoming
p2906
aVwaters
p2907
aVinaugural
p2908
aVtide
p2909
aVpayment
p2910
aVcapita
p2911
aVaforementioned
p2912
aVpassing
p2913
aVformulation
p2914
aVarising
p2915
aVsoft
p2916
aVwise
p2917
aVtae-chung
p2918
aVaccidents
p2919
aVdisciplines
p2920
aVpunishment
p2921
aVhospital
p2922
aVattract
p2923
aVbeidaihe
p2924
aVbanning
p2925
aVgot
p2926
aVprefecture
p2927
aVbridge
p2928
aVcommanding
p2929
aVspite
p2930
aVinstitution
p2931
aVannounce
p2932
aVoffices
p2933
aVperfected
p2934
aVaccomplishments
p2935
aVindispensable
p2936
aVmedium
p2937
aVvarying
p2938
aVphilippines
p2939
aVnavigation
p2940
aVchapter
p2941
aVgorges
p2942
aVcommunication
p2943
aVreturns
p2944
aVconvention
p2945
aVgives
p2946
aVwide
p2947
aVsure
p2948
aVreadjust
p2949
aVgulf
p2950
aVexplicitly
p2951
aVqinghong
p2952
aVviolated
p2953
aVcollege
p2954
aVarrival
p2955
aVafterwards
p2956
aVsomeone
p2957
aVevents
p2958
aVrelief
p2959
aVcomponents
p2960
aVstyles
p2961
aVaccounts
p2962
aVincludes
p2963
aVguns
p2964
aVallows
p2965
aVunswervingly
p2966
aVpolicemen
p2967
aVfallen
p2968
aVking
p2969
aVimports
p2970
aVachievement
p2971
aVunilaterally
p2972
aVwrote
p2973
aVinitially
p2974
aVwhom
p2975
aVreduction
p2976
aVadvocating
p2977
aVbehavior
p2978
aVregardless
p2979
aVviolations
p2980
aVadvocate
p2981
aVfee
p2982
aVfeb
p2983
aVfirepower
p2984
aVsucceeded
p2985
aVarouse
p2986
aVchee-hwa
p2987
aVcriteria
p2988
aVmerits
p2989
aVagencies
p2990
aVtactical
p2991
aVwild
p2992
aVsky
p2993
aVillegally
p2994
aVranks
p2995
aVerrors
p2996
aVappropriately
p2997
aVcurrency
p2998
aVfeature
p2999
aVheadquarters
p3000
aVwelcomes
p3001
aVuniversally
p3002
aVxie
p3003
aVsimilarly
p3004
aVengagement
p3005
aVpositively
p3006
aVmorality
p3007
aVincomplete
p3008
aVrice
p3009
aVldp
p3010
aVchild
p3011
aVmemorial
p3012
aVcorporate
p3013
aVpolitburo
p3014
aVenemies
p3015
aVannan
p3016
aVdefensive
p3017
aVslightly
p3018
aVxuanping
p3019
aVcorps
p3020
aVsolved
p3021
aVsettle
p3022
aVcommonly
p3023
aVopposes
p3024
aVangry
p3025
aVtendency
p3026
aVrecords
p3027
aVquarter
p3028
aVseventh
p3029
aVsaw
p3030
aVaside
p3031
aVknew
p3032
aVaggressive
p3033
aVtears
p3034
aVbombs
p3035
aVworries
p3036
aVallocation
p3037
aVinstrument
p3038
aVrefer
p3039
aVlofty
p3040
aVdetailed
p3041
aVseriousness
p3042
aVlaying
p3043
aVliterary
p3044
aVcivilizations
p3045
aVimpacts
p3046
aVappealed
p3047
aVarmaments
p3048
aVjiangsu
p3049
aVproducers
p3050
aVdemonstrations
p3051
aViranian
p3052
aVaccepting
p3053
aVunderstands
p3054
aVjiechi
p3055
aVself-discipline
p3056
aVbanner
p3057
aVbanking
p3058
aVinstitutes
p3059
aVchurch
p3060
aVread
p3061
aVnecessity
p3062
aV4th
p3063
aVaerospace
p3064
aVemergence
p3065
aVflying
p3066
aVcriticisms
p3067
aVspecifically
p3068
aVconsiderably
p3069
aVaerial
p3070
aVdiverse
p3071
aVindicating
p3072
aVgarden
p3073
aVindex
p3074
aVdefeat
p3075
aVdestroying
p3076
aVcounter
p3077
aVstimulate
p3078
aVblows
p3079
aVopening-up
p3080
aVdefending
p3081
aVexerted
p3082
aVarrest
p3083
aVchancellor
p3084
aVdemonstrators
p3085
aVschedule
p3086
aVselecting
p3087
aVdetails
p3088
aVcompete
p3089
aVvotes
p3090
aVpragmatic
p3091
aVaward
p3092
aV1993
p3093
aVtransparency
p3094
aVcarriers
p3095
aVinfringement
p3096
aVinnovative
p3097
aVapproximately
p3098
aVrates
p3099
aVdiversified
p3100
aVpakistani
p3101
aVmanned
p3102
aVaccounted
p3103
aVvoting
p3104
aVreligions
p3105
aVerroneous
p3106
aVdepends
p3107
aVaim
p3108
aVwhereby
p3109
aV1970
p3110
aV50th
p3111
aVhonored
p3112
aVmarketing
p3113
aVnewspapers
p3114
aVpays
p3115
aVaccordingly
p3116
aVgun
p3117
aVspy
p3118
aVoccur
p3119
aVarmies
p3120
aVsacrifice
p3121
aV100,000
p3122
aVnov
p3123
aVaccomplish
p3124
aVwholeheartedly
p3125
aVbarak
p3126
aVobligation
p3127
aVhonest
p3128
aVstriking
p3129
aVflowers
p3130
aVtransferred
p3131
aVfruits
p3132
aVcorrection
p3133
aVforever
p3134
aVratio
p3135
aVproportion
p3136
aVburst
p3137
aVstaged
p3138
aVenabling
p3139
aVnearby
p3140
aVinformed
p3141
aVmarking
p3142
aVtheater
p3143
aVwhose
p3144
aVearnest
p3145
aVelementary
p3146
aVcoverage
p3147
aVchain
p3148
aVfoster
p3149
aVhelps
p3150
aVbroke
p3151
aVding
p3152
aVwell-known
p3153
aVheroic
p3154
aVsubstantial
p3155
aVpatterns
p3156
aVclean
p3157
aVokinawa
p3158
aVgovernor
p3159
aVprocuratorate
p3160
aVinformal
p3161
aVcreation
p3162
aVrebates
p3163
aVfaith
p3164
aVdissatisfaction
p3165
aVcotton
p3166
aVwished
p3167
aVbecomes
p3168
aVadvocates
p3169
aVmatsu
p3170
aVchung
p3171
aVconstitute
p3172
aVentertainment
p3173
aVrectifying
p3174
aVpunish
p3175
aVbattles
p3176
aVintentions
p3177
aVyao
p3178
aVforge
p3179
aVmotive
p3180
aVequally
p3181
aVsouth-north
p3182
aVprotest
p3183
aVtajikistan
p3184
aVsubordinate
p3185
aVnet
p3186
aVpermit
p3187
aVsetup
p3188
aVinvolve
p3189
aVcapitalism
p3190
aVpersist
p3191
aVsuccessively
p3192
aVsomewhat
p3193
aVsurrounding
p3194
aVenabled
p3195
aVpalace
p3196
aVintegrate
p3197
aVheilongjiang
p3198
aVtroop
p3199
aVreference
p3200
aVtesting
p3201
aVheight
p3202
aVtrigger
p3203
aVdeeper
p3204
aVexception
p3205
aVservicemen
p3206
aVdestroy
p3207
aVseparately
p3208
aVbold
p3209
aVinspected
p3210
aVon-the-spot
p3211
aVdied
p3212
aVfather
p3213
aVmaterialize
p3214
aVkilometers
p3215
aVspheres
p3216
aVavoiding
p3217
aV9th
p3218
aVclaim
p3219
aVgradual
p3220
aVseizing
p3221
aVprotected
p3222
aVshocked
p3223
aVtrack
p3224
aVconspicuous
p3225
aVfeng
p3226
aVforeign-invested
p3227
aVinvestigating
p3228
aVimprisonment
p3229
aVfooting
p3230
aVextensively
p3231
aVviolence
p3232
aVquietly
p3233
aVjerusalem
p3234
aVstrikes
p3235
aVgore
p3236
aVfilm
p3237
aVamendments
p3238
aVacademies
p3239
aVforged
p3240
aVcampaigns
p3241
aVsanction
p3242
aVeye
p3243
aVdamaged
p3244
aVspecialized
p3245
aVradar
p3246
aVmultipolarization
p3247
aVwages
p3248
aVkm
p3249
aVdisturbances
p3250
aVbusinesses
p3251
aVcarefully
p3252
aVgeological
p3253
aVhelms
p3254
aVfaithfully
p3255
aVlimit
p3256
aVwithdraw
p3257
aVimpetus
p3258
aVdeliberately
p3259
aVopponent
p3260
aV%
aVintensifying
p3261
aVirreplaceable
p3262
aV2002
p3263
aVminors
p3264
aVseverely
p3265
aVnanjing
p3266
aVchu
p3267
aVdefendant
p3268
aVphilosophy
p3269
aVle
p3270
aVfacilitate
p3271
aVmilitarism
p3272
aVenthusiastic
p3273
aVoccasion
p3274
aVcontrols
p3275
aVdemobilized
p3276
aVcalling
p3277
aVtaiwanese
p3278
aVarmenia
p3279
aVhighland
p3280
aVjudgment
p3281
aVweapon
p3282
aVprocurement
p3283
aVsets
p3284
aVusual
p3285
aVpeacefully
p3286
aVguofang
p3287
aVdelegations
p3288
aVfyp
p3289
aVadmitted
p3290
aVtmd
p3291
aVbuy
p3292
aV45
p3293
aVcomparatively
p3294
aVencounter
p3295
aVrepresented
p3296
aVvoice
p3297
aVdemanding
p3298
aVsplendid
p3299
aVinterpretation
p3300
aVdestroyed
p3301
aVasia-europe
p3302
aVboosting
p3303
aVsober
p3304
aVdoomed
p3305
aVoverwhelming
p3306
aVhearings
p3307
aVdrugs
p3308
aVsuggest
p3309
aVunemployment
p3310
aVjudge
p3311
aVhsu
p3312
aVobtaining
p3313
aVlivelihood
p3314
aVnoticeably
p3315
aVaustralian
p3316
aVrepresentations
p3317
aVbranches
p3318
aVcope
p3319
aVhui
p3320
aVdongshan
p3321
aVuncle
p3322
aVviewpoint
p3323
aVbought
p3324
aVignored
p3325
aVpoll
p3326
aVturkey
p3327
aVbodies
p3328
aVinflation
p3329
aVreduced
p3330
aVburdens
p3331
aVjian
p3332
aVrelocation
p3333
aVchina-africa
p3334
aVhighway
p3335
aVdirections
p3336
aVtragedy
p3337
aVbreaking
p3338
aVpretext
p3339
aVargentina
p3340
aVunhealthy
p3341
aVlinking
p3342
aVfeet
p3343
aVstorm
p3344
aVmainstay
p3345
aVconvinced
p3346
aVaims
p3347
aVobstacles
p3348
aVart
p3349
aVincomes
p3350
aVflames
p3351
aVindefinitely
p3352
aVbatch
p3353
aVample
p3354
aVwidely
p3355
aVma
p3356
aVassociations
p3357
aVsubhead
p3358
aVnepalese
p3359
aVcompleting
p3360
aVhatred
p3361
aVallowing
p3362
aVapr
p3363
aVsmaller
p3364
aVzhaoxing
p3365
aVseparation
p3366
aVlarger
p3367
aV1980s
p3368
aVtenure
p3369
aVventures
p3370
aVflew
p3371
aVfrontier
p3372
aVcatholic
p3373
aVnew-type
p3374
aVpurely
p3375
aVdemocrats
p3376
aVones
p3377
aVqi
p3378
aVgrounds
p3379
aVsufficient
p3380
aVperhaps
p3381
aVgeographical
p3382
aVautomation
p3383
aVmines
p3384
aVleap
p3385
aVurges
p3386
aVyayan
p3387
aVkejie
p3388
aVuzbekistan
p3389
aVcharter
p3390
aVhanging
p3391
aVcontributed
p3392
aVoccupying
p3393
aVstandardized
p3394
aVaccomplishment
p3395
aVreviewing
p3396
aVshores
p3397
aVtypes
p3398
aVeducating
p3399
aVdetachment
p3400
aVarrow
p3401
aVlaboratory
p3402
aVtianjin
p3403
aVmanagerial
p3404
aVneeded
p3405
aVlisten
p3406
aVhungary
p3407
aVeliminated
p3408
aVbusy
p3409
aVappreciated
p3410
aVrespond
p3411
aVunexpectedly
p3412
aVself-confidence
p3413
aVfry
p3414
aVemploy
p3415
aVhan
p3416
aVposed
p3417
aVpsychological
p3418
aVintroduce
p3419
aVsoe
p3420
aVundermining
p3421
aVon-line
p3422
aVoffer
p3423
aVflood
p3424
aVinvested
p3425
aVconferred
p3426
aVtwo-way
p3427
aVeducate
p3428
aVfalling
p3429
aVfacilitating
p3430
aVkono
p3431
aVtroubles
p3432
aVhot
p3433
aVarriving
p3434
aVhangzhou
p3435
aVproactive
p3436
aVsam
p3437
aVhigh-technology
p3438
aVsuspects
p3439
aVcongressional
p3440
aVliable
p3441
aVmotives
p3442
aVchan
p3443
aVsummed
p3444
aVdare
p3445
aVthinks
p3446
aVberger
p3447
aVliaoning
p3448
aVaccumulated
p3449
aVvocational
p3450
aVrostrum
p3451
aVaccompanying
p3452
aVattendance
p3453
aVpetroleum
p3454
aVcivilian-run
p3455
aVcorrected
p3456
aVemancipated
p3457
aVauthor
p3458
aVbroadcasting
p3459
aVgeographic
p3460
aVfurthering
p3461
aVclique
p3462
aVguest
p3463
aVfocusing
p3464
aVloan
p3465
aVartistic
p3466
aVbanned
p3467
aVprogressive
p3468
aVwell-off
p3469
aVapproaching
p3470
aVhardship
p3471
aVguangxi
p3472
aVpublishing
p3473
aVreceive
p3474
aVdecline
p3475
aVmighty
p3476
aVmideast
p3477
aVbj
p3478
aVconsiderable
p3479
aVnationalist
p3480
aVcontinues
p3481
aVminerals
p3482
aVexperiencing
p3483
aVeve
p3484
aVexpresses
p3485
aVpublications
p3486
aVperfecting
p3487
aVpretexts
p3488
aVintellectuals
p3489
aVratification
p3490
aVlos
p3491
aVviewed
p3492
aVgreenhouse
p3493
aVsecretaries
p3494
aVedition
p3495
aVwaste
p3496
aVoptimistic
p3497
aVpainstaking
p3498
aVterrorism
p3499
aVcovenant
p3500
aVvillagers
p3501
aVchecking
p3502
aVsupervise
p3503
aVtransport
p3504
aVmonument
p3505
aVlately
p3506
aVlasted
p3507
aVsummarized
p3508
aVceased
p3509
aVcmc
p3510
aVappreciate
p3511
aVdevote
p3512
aVbackgrounds
p3513
aVschemes
p3514
aVvessels
p3515
aVmiddle-aged
p3516
aVluong
p3517
aVfestival
p3518
aVluncheon
p3519
aVscenes
p3520
aVconvenient
p3521
aVextending
p3522
aVbrief
p3523
aVenjoyed
p3524
aVadequate
p3525
aVcovering
p3526
aVexplanations
p3527
aVfrontline
p3528
aVtechniques
p3529
aVtransmission
p3530
aVtone
p3531
aVwider
p3532
aVgratitude
p3533
aVflexible
p3534
aVinnocent
p3535
aVseparatism
p3536
aVexile
p3537
aVsaddam
p3538
aV1979
p3539
aVmix
p3540
aVpassive
p3541
aVbelongs
p3542
aV/
aVasking
p3543
aVdeflation
p3544
aVchengdu
p3545
aVconservation
p3546
aVvatican
p3547
aVevidence
p3548
aVpromised
p3549
aVunwilling
p3550
aVmingwei
p3551
aVupper
p3552
aVdiscover
p3553
aVforging
p3554
aVappears
p3555
aVsubsidies
p3556
aVnomination
p3557
aVremember
p3558
aVwhenever
p3559
aVdrop
p3560
aVreceiving
p3561
aVcars
p3562
aVinevitable
p3563
aVtransition
p3564
aVblind
p3565
aVbenefited
p3566
aVsilent
p3567
aVthai
p3568
aVmanufacturers
p3569
aVimportantly
p3570
aVupgrade
p3571
aVtitle
p3572
aVapplause
p3573
aVreorganized
p3574
aVkha
p3575
aVzhongnanhai
p3576
aVconducts
p3577
aVbigger
p3578
aVwheat
p3579
aVcomparison
p3580
aVboldly
p3581
aVheated
p3582
aVfraud
p3583
aVrepay
p3584
aVmanager
p3585
aVconscience
p3586
aVall-china
p3587
aVturmoil
p3588
aVinspired
p3589
aVsoldier
p3590
aVanalyzing
p3591
aVchaotic
p3592
aVquickening
p3593
aVexcuse
p3594
aVyunnan
p3595
aVtries
p3596
aVintervene
p3597
aVunresolved
p3598
aVnorms
p3599
aVsentenced
p3600
aVsoviet
p3601
aVtenet
p3602
aVcircle
p3603
aVfeels
p3604
aVswitzerland
p3605
aVpatriotism
p3606
aVranked
p3607
aVminorities
p3608
aVempty
p3609
aVbidding
p3610
aVreformed
p3611
aVquanyou
p3612
aVtemporary
p3613
aVquarters
p3614
aVoverriding
p3615
aVprocessing
p3616
aVsimulation
p3617
aVseeing
p3618
aVpentagon
p3619
aVordered
p3620
aVyuanhua
p3621
aVchang
p3622
aVsihanouk
p3623
aVservants
p3624
aVembodiment
p3625
aVchiefs
p3626
aVhostile
p3627
aVlong-range
p3628
aVunchanged
p3629
aVissuing
p3630
aVdeclined
p3631
aVpursues
p3632
aVemerging
p3633
aVviolation
p3634
aVcommanders
p3635
aVpurchasing
p3636
aVmaritime
p3637
aVplaces
p3638
aVmanifestations
p3639
aVdiscrimination
p3640
aVshoulders
p3641
aVexamined
p3642
aVemancipating
p3643
aVabsorb
p3644
aVreflection
p3645
aVheaded
p3646
aVprohibited
p3647
aVpreviously
p3648
aVsubjective
p3649
aVall-army
p3650
aVstories
p3651
aVrumors
p3652
aVoffensive
p3653
aVpersistent
p3654
aVportion
p3655
aVaides
p3656
aVcommunique
p3657
aVcrops
p3658
aVpossibility
p3659
aVcovers
p3660
aVtertiary
p3661
aVschroeder
p3662
aVroot
p3663
aVvicious
p3664
aVcapitalist
p3665
aVacademics
p3666
aVmeat
p3667
aVdawn
p3668
aVrestricted
p3669
aVconforms
p3670
aVpreparation
p3671
aVsees
p3672
aVassisting
p3673
aVdon
p3674
aVnortheast
p3675
aVjudged
p3676
aVinappropriate
p3677
aVignorance
p3678
aVconfronted
p3679
aVthrew
p3680
aVtapping
p3681
aVugly
p3682
aVwaging
p3683
aVus-china
p3684
aVsupervisory
p3685
aVunnecessary
p3686
aVcollect
p3687
aVfactions
p3688
aVauthoritative
p3689
aVhanded
p3690
aVapology
p3691
aVproletarian
p3692
aVadviser
p3693
aVattracting
p3694
aVafghanistan
p3695
aVfilled
p3696
aVtransportation
p3697
aVcanadian
p3698
aVall-out
p3699
aVcautious
p3700
aVarrive
p3701
aVuruguay
p3702
aVkarimov
p3703
aVstrike-hard
p3704
aVdesigned
p3705
aVdeposit
p3706
aVmonitor
p3707
aVtouching
p3708
aVlatin
p3709
aVconscientious
p3710
aVpersonalities
p3711
aVoccupied
p3712
aVchannel
p3713
aVassault
p3714
aVelevate
p3715
aVcambodian
p3716
aVstorms
p3717
aVsecondary
p3718
aVwonder
p3719
aVkilling
p3720
aVji
p3721
aVnationality
p3722
aVyugoslav
p3723
aVongoing
p3724
aVharsh
p3725
aVinsofar
p3726
aVpan
p3727
aVadjustments
p3728
aVcolonial
p3729
aVstations
p3730
aVfile
p3731
aVimporting
p3732
aVdeterrent
p3733
aV4,000
p3734
aVobsessed
p3735
aVremote
p3736
aVgod
p3737
aVfounded
p3738
aVenjoying
p3739
aVdifference
p3740
aVunilateralism
p3741
aVdictatorship
p3742
aVstood
p3743
aVspeeches
p3744
aVshareholders
p3745
aVrecall
p3746
aVrobinson
p3747
aVfamc
p3748
aVsino-african
p3749
aVazerbaijan
p3750
aVarrogant
p3751
aVports
p3752
aVassist
p3753
aVcomputers
p3754
aVjuncture
p3755
aVcompromise
p3756
aVb
aVgiant
p3757
aVpermission
p3758
aV11th
p3759
aViron
p3760
aVsimple
p3761
aVensured
p3762
aVtextile
p3763
aVflags
p3764
aVcut
p3765
aVjudgement
p3766
aVconsequently
p3767
aVbankruptcy
p3768
aVreputation
p3769
aVvietnamese
p3770
aVsewage
p3771
aVaccess
p3772
aVobjects
p3773
aVpresidents
p3774
aVclosing
p3775
aVlama
p3776
aVla
p3777
aVextradition
p3778
aVdai
p3779
aVwarned
p3780
aVreliable
p3781
aVexplanation
p3782
aVpreliminary
p3783
aVkyoto
p3784
aVinferior
p3785
aVregularly
p3786
aVkazakhstan
p3787
aVjinhua
p3788
aVattributed
p3789
aVcomment
p3790
aVunfold
p3791
aVushering
p3792
aVflourishing
p3793
aVangles
p3794
aVfellow
p3795
aVproductivity
p3796
aVtighten
p3797
aV1980
p3798
aVrushed
p3799
aVviolate
p3800
aVconvening
p3801
aVrisk
p3802
aVstipulated
p3803
aVphone
p3804
aVexecuted
p3805
aVwriting
p3806
aVpublicizing
p3807
aVformation
p3808
aVheights
p3809
aVballistic
p3810
aVcentered
p3811
aVroles
p3812
aVforceful
p3813
aVtraditionally
p3814
aVsupremacy
p3815
aVoct
p3816
aVfarther
p3817
aVangang
p3818
aVreiterate
p3819
aVrepublicans
p3820
aVexpenses
p3821
aVdecision-making
p3822
aVinsisted
p3823
aVpossessed
p3824
aVhearts
p3825
aVpossesses
p3826
aVsalvage
p3827
aVhumanity
p3828
aVaddicts
p3829
aV53
p3830
aVdonald
p3831
aVembodied
p3832
aVpermitted
p3833
aVfought
p3834
aVhear
p3835
aVsatisfactorily
p3836
aVremoved
p3837
aVtanks
p3838
aVvladimir
p3839
aVquick
p3840
aVgraduates
p3841
aVsports
p3842
aVphieu
p3843
aVprefectural
p3844
aVdropped
p3845
aVparliamentary
p3846
aVharmed
p3847
aVplus
p3848
aVblocked
p3849
aVplatform
p3850
aVqualified
p3851
aVf-16
p3852
aVexploring
p3853
aVgangchuan
p3854
aVexchanging
p3855
aVmultiple
p3856
aVquantity
p3857
aVcheap
p3858
aVbelieving
p3859
aVviolates
p3860
aVencouraged
p3861
aVinseparable
p3862
aVmissions
p3863
aVquiet
p3864
aVsenator
p3865
aVcolor
p3866
aVantisatellite
p3867
aVmyself
p3868
aVmodes
p3869
aVexcept
p3870
aVevasive
p3871
aVreinforcing
p3872
aVinstruments
p3873
aVrevolutionaries
p3874
aVmunicipalities
p3875
aVinvest
p3876
aVhomage
p3877
aVsons
p3878
aVadvantageous
p3879
aVpassage
p3880
aVglad
p3881
aVthird-generation
p3882
aVstrange
p3883
aVmilestone
p3884
aVexpect
p3885
aVyohei
p3886
aVconsequence
p3887
aVhotel
p3888
aV70
p3889
aVprestige
p3890
aV5,000
p3891
aVunions
p3892
aVsold
p3893
aVcompetent
p3894
aVduc
p3895
aValliances
p3896
aVhospitality
p3897
aVcontinent
p3898
aVheart
p3899
aVintense
p3900
aVgratifying
p3901
aVassociated
p3902
aVcultivating
p3903
aVbackbone
p3904
aVdragged
p3905
aVattaining
p3906
aVseized
p3907
aVnotes
p3908
aVwaiting
p3909
aVleaving
p3910
aVsit
p3911
aVlooks
p3912
aVsuperior
p3913
aVcovered
p3914
aVcontention
p3915
aVtran
p3916
aVbills
p3917
aV80
p3918
aVfeasible
p3919
aVconversation
p3920
aVproposing
p3921
aVimperial
p3922
aV1.2
p3923
aVcohen
p3924
aVagency
p3925
aVavailable
p3926
aVacquired
p3927
aVchairmen
p3928
aVenvironments
p3929
aVissuance
p3930
aVenglish
p3931
aVhappiness
p3932
aVsmart
p3933
aVsecret
p3934
aVrightwing
p3935
aVpreface
p3936
aVfive-nation
p3937
aVcyprus
p3938
aVstipulate
p3939
aVwavered
p3940
aVspecially
p3941
aVpioneering
p3942
aVsubstance
p3943
aViis
p3944
aVstern
p3945
aVmusic
p3946
aVdistortions
p3947
aVrelax
p3948
aV90
p3949
aV95
p3950
aVlocked
p3951
aVrevenues
p3952
aVadmits
p3953
aVtravel
p3954
aVmachine
p3955
aVmethodology
p3956
aVministerial-level
p3957
aVyouths
p3958
aVpresiding
p3959
aVkeeps
p3960
aVring
p3961
aVborne
p3962
aVassured
p3963
aVsuccession
p3964
aVups
p3965
aVministries
p3966
aVshipped
p3967
aVkingdom
p3968
aVsize
p3969
aVloss-making
p3970
aVxin
p3971
aVcollapse
p3972
aVgeneva
p3973
aVsino-indian
p3974
aVdozen
p3975
aVappreciates
p3976
aVmouth
p3977
aVconfederation
p3978
aVbomb
p3979
aVtouched
p3980
aVpressures
p3981
aVsacrificing
p3982
aVreaders
p3983
aVdemanded
p3984
aVlogic
p3985
aVeradicate
p3986
aVholdings
p3987
aVspit
p3988
aVlift
p3989
aVgerhard
p3990
aVspurred
p3991
aVenters
p3992
aVspared
p3993
aVbottom
p3994
aVcreative
p3995
aVpalestinians
p3996
aVauthorized
p3997
aVmarxism-leninism
p3998
aVtalents
p3999
aVvanguard
p4000
aVsmashed
p4001
aV150
p4002
aVuttered
p4003
aVnarayanan
p4004
aVreorganization
p4005
aVbanners
p4006
aVjiangxi
p4007
aVwhoever
p4008
aVconsolidation
p4009
aVrationality
p4010
aVexact
p4011
aVminute
p4012
aVinscribed
p4013
aVjilin
p4014
aVsino-british
p4015
aVipu
p4016
aVforefront
p4017
aVintroducing
p4018
aVrefrain
p4019
aVvalued
p4020
aVharmonious
p4021
aVsudden
p4022
aVspot
p4023
aVst
p4024
aVyoshiro
p4025
aVprofessors
p4026
aVexperiments
p4027
aVconstituted
p4028
aVcelebrate
p4029
aVinstability
p4030
aVreadjusting
p4031
aVneglect
p4032
aVsaving
p4033
aVindicate
p4034
aVcite
p4035
aVzhenghua
p4036
aVspecialists
p4037
aVivanov
p4038
aVthermal-control
p4039
aVillness
p4040
aVargument
p4041
aVopposite
p4042
aVsalt
p4043
aVmacedonia
p4044
aVassistant
p4045
aVawaiting
p4046
aVmaturity
p4047
aVspare
p4048
aVcomeback
p4049
aVcurbing
p4050
aVverified
p4051
aVwpk
p4052
aVscholarship
p4053
aVprovocation
p4054
aVvague
p4055
aVobstruct
p4056
aVsino-brazilian
p4057
aVlively
p4058
aVbubble
p4059
aVelimination
p4060
aVpull
p4061
aVad
p4062
aVwalks
p4063
aVningxia
p4064
aVappointment
p4065
aVblockade
p4066
aVcable
p4067
aVadjust
p4068
aVundecided
p4069
aVchunyun
p4070
aVimminent
p4071
aVdismissed
p4072
aVbackyard
p4073
aVtaiwan-funded
p4074
aVsigns
p4075
aVeconomists
p4076
aVcoping
p4077
aVdowns
p4078
aVintroduction
p4079
aVrampant
p4080
aVself
p4081
aVattacking
p4082
aVwording
p4083
aVgold
p4084
aVmoroccan
p4085
aVdefended
p4086
aVsurpassed
p4087
aVindicator
p4088
aVdependent
p4089
aVcroatia
p4090
aVmigration
p4091
aVpeacetime
p4092
aVinfluential
p4093
aVcoincidence
p4094
aVagents
p4095
aVconsulate
p4096
aVfallacies
p4097
aVvirtually
p4098
aVresulting
p4099
aVchangting
p4100
aVleaps
p4101
aVnamed
p4102
aVaustralia
p4103
aVcouple
p4104
aVwives
p4105
aVsuffering
p4106
aVpertinent
p4107
aVparliamentarians
p4108
aVlenin
p4109
aVpredicaments
p4110
aVnowhere
p4111
aVprivately-run
p4112
aVstrives
p4113
aVling
p4114
aVmorocco
p4115
aVcamp
p4116
aVdefined
p4117
aVlikewise
p4118
aVwalked
p4119
aVcode
p4120
aVcenters
p4121
aVchangqing
p4122
aVstreet
p4123
aVcategories
p4124
aVmagic
p4125
aVanxious
p4126
aVyardstick
p4127
aVinsists
p4128
aVdrill
p4129
aVpurposes
p4130
aVpieces
p4131
aVdelay
p4132
aVvaried
p4133
aVmanpower
p4134
aVcommodities
p4135
aVdaohan
p4136
aVmeantime
p4137
aVdisrupted
p4138
aVmerge
p4139
aVthird-step
p4140
aVshut
p4141
aVinteractions
p4142
aVthrust
p4143
aVlength
p4144
aVethical
p4145
aVadopts
p4146
aVsteel
p4147
aVcollecting
p4148
aVdished
p4149
aVsoar
p4150
aVvisa
p4151
aVcease-fire
p4152
aVcentralized
p4153
aVdecade
p4154
aVemancipate
p4155
aVmeant
p4156
aVtemporarily
p4157
aV8.2
p4158
aVlaser
p4159
aVripe
p4160
aVafghan
p4161
aVaudit
p4162
aVtransparent
p4163
aVgaining
p4164
aVliquidation
p4165
aVforeseeable
p4166
aVsufficiently
p4167
aVangeles
p4168
aVinsufficient
p4169
aVconcession
p4170
aVreferendum
p4171
aVassess
p4172
aVimpeding
p4173
aVdelivery
p4174
aVappraise
p4175
aVjesse
p4176
aVreadjustments
p4177
aVforests
p4178
aVchance
p4179
aVoutdated
p4180
aVvoted
p4181
aVdistort
p4182
aVdeliberate
p4183
aVchechen
p4184
aVofficially
p4185
aVcelebration
p4186
aVpostponed
p4187
aVplot
p4188
aVharnessing
p4189
aVrefusing
p4190
aVcontainment
p4191
aVtotaled
p4192
aVrecovery
p4193
aVfarce
p4194
aVegyptian
p4195
aVresignation
p4196
aVharmony
p4197
aV2,000
p4198
aVlifted
p4199
aVmedicine
p4200
aVforcibly
p4201
aVbaltic
p4202
aVsuspension
p4203
aVprotracted
p4204
aVrejected
p4205
aVseated
p4206
aVrespecting
p4207
aVgenuine
p4208
aViceland
p4209
aVconsciousness
p4210
aVyen
p4211
aVdc
p4212
aVyielded
p4213
aVvividly
p4214
aVobserver
p4215
aVhandful
p4216
aVbroadening
p4217
aVcondemned
p4218
aVapplied
p4219
aVgnp
p4220
aVpublicly
p4221
aVconfirmed
p4222
aVconvictions
p4223
aVunavoidable
p4224
aVpose
p4225
aVconsiderations
p4226
aVbalanced
p4227
aVresearchers
p4228
aVherdsmen
p4229
aVinterested
p4230
aVbrothers
p4231
aVconvincing
p4232
aVloyal
p4233
aVsongs
p4234
aVfog
p4235
aVterror
p4236
aVliability
p4237
aVbrave
p4238
aVsatisfy
p4239
aVinauguration
p4240
aVplotted
p4241
aVretired
p4242
aVfbi
p4243
aVslogan
p4244
aVcai
p4245
aVkadena
p4246
aVexplicit
p4247
aVguangen
p4248
aVaiding
p4249
aVstatistical
p4250
aVresettling
p4251
aVbroadcasts
p4252
aVhalt
p4253
aV1954
p4254
aVfarces
p4255
aVlawyers
p4256
aVhastily
p4257
aVentrusted
p4258
aVromania
p4259
aVmunicipality
p4260
aVcaught
p4261
aVasian-pacific
p4262
aVbrains
p4263
aVyushun
p4264
aVmonopolies
p4265
aVdistorted
p4266
aVoffering
p4267
aVovercoming
p4268
aVonline
p4269
aVsuccessive
p4270
aVenriched
p4271
aVblame
p4272
aVdispatch
p4273
aVsplittism
p4274
aVresort
p4275
aVrealities
p4276
aVmining
p4277
aVcanceled
p4278
aVsudanese
p4279
aVclosest
p4280
aVcomplained
p4281
aVconstitutional
p4282
aVepoch-making
p4283
aVexecution
p4284
aVmiracle
p4285
aVdownward
p4286
aVendorsed
p4287
aVtragedies
p4288
aVthrow
p4289
aVsri
p4290
aVresearching
p4291
aVpersecution
p4292
aVdelayed
p4293
aVintercontinental
p4294
aValternate
p4295
aVconnotations
p4296
aVyuan-tseh
p4297
aVdeadline
p4298
aVconsumers
p4299
aVemotions
p4300
aVmultinational
p4301
aVanswers
p4302
aVarena
p4303
aVadvertising
p4304
aVtrained
p4305
aVjr.
p4306
aVstayed
p4307
aVcriticize
p4308
aVanytime
p4309
aVreservoir
p4310
aVprogressing
p4311
aVstaunch
p4312
aVinjured
p4313
aVinspections
p4314
aVbeyond
p4315
aVfavored
p4316
aVundergo
p4317
aVassign
p4318
aVmiss
p4319
aVauthors
p4320
aVtieying
p4321
aVurgently
p4322
aVconcentration
p4323
aVon-going
p4324
aVquota
p4325
aVunreasonable
p4326
aVblindly
p4327
aVcompletion
p4328
aVcopyright
p4329
aVwithdrawal
p4330
aVpoisoned
p4331
aVconstellation
p4332
aVdeploying
p4333
aVpictures
p4334
aVmissing
p4335
aVmaintenance
p4336
aVelse
p4337
aVvoters
p4338
aVyoungsters
p4339
aVrevitalization
p4340
aVjinlong
p4341
aVguaranteed
p4342
aVbrand-new
p4343
aVenthusiastically
p4344
aVresorted
p4345
aVantiaircraft
p4346
aVqatar
p4347
aVcompetitions
p4348
aVkind-hearted
p4349
aVplots
p4350
aVblock
p4351
aVgrams
p4352
aVcircuits
p4353
aVforesight
p4354
aVmozambique
p4355
aVreportedly
p4356
aVindependently
p4357
aVproposition
p4358
aVsuits
p4359
aVfond
p4360
aVacreage
p4361
aVenforce
p4362
aVcolonel
p4363
aVevoked
p4364
aVexperiment
p4365
aVkissinger
p4366
aVbenevolence
p4367
aVpatents
p4368
aVexamining
p4369
aVranking
p4370
aVpredict
p4371
aVpanel
p4372
aVannouncing
p4373
aVrecession
p4374
aVsought
p4375
aVideologically
p4376
aVburma
p4377
aVinterceptor
p4378
aVhelicopters
p4379
aVbrook
p4380
aVauto
p4381
aV700
p4382
aVsecretly
p4383
aVpeace-loving
p4384
aVresumed
p4385
aVroute
p4386
aVcounterpart
p4387
aVkeen
p4388
aVpossessing
p4389
aVsubmit
p4390
aVdistinguished
p4391
aVtruck
p4392
aVdetector
p4393
aVinter-party
p4394
aVemployed
p4395
aVtobacco
p4396
aVcontain
p4397
aVcuts
p4398
aVreinforce
p4399
aVoperated
p4400
aVtend
p4401
aVsabotage
p4402
aVlaid-off
p4403
aVadmit
p4404
aVdiplomats
p4405
aVep-3
p4406
aVcent
p4407
aVyan
p4408
aVharder
p4409
aVnorthwest
p4410
aVpractitioner
p4411
aV47
p4412
aVrestore
p4413
aVaccurate
p4414
aVushered
p4415
aVfine-tune
p4416
aVloss
p4417
aVoppression
p4418
aVsponsoring
p4419
aVtides
p4420
aVbalkans
p4421
aVsinister
p4422
aVpeiyan
p4423
aVinner
p4424
aVho
p4425
aVconventions
p4426
aVinquired
p4427
aVdisplay
p4428
aVurging
p4429
aVdiligently
p4430
aVcontest
p4431
aVsorry
p4432
aVrailways
p4433
aVsponsored
p4434
aVheading
p4435
aVdr.
p4436
aVignoring
p4437
aVmobility
p4438
aVward
p4439
aV10,000
p4440
aVathletes
p4441
aVlegqog
p4442
aVvictories
p4443
aVdaughters
p4444
aVcalmly
p4445
aV57th
p4446
aVsolemnly
p4447
aVbegins
p4448
aVpoland
p4449
aVmini
p4450
aVtells
p4451
aVworsening
p4452
aVobservation
p4453
aVamending
p4454
aVending
p4455
aVexplain
p4456
aVreviewed
p4457
aVbar
p4458
aVjinan
p4459
aVproceeded
p4460
aVasks
p4461
aVquantities
p4462
aVremaining
p4463
aVemployees
p4464
aVenvoy
p4465
aVconfronting
p4466
aVthoughts
p4467
aVpracticed
p4468
aVfailing
p4469
aVresuming
p4470
aVclaims
p4471
aVcandidate
p4472
aVsupervisors
p4473
aVstandardization
p4474
aVsignal
p4475
aVelderly
p4476
aVdense
p4477
aVinvestigations
p4478
aVburn
p4479
aVdoctrine
p4480
aV1990s
p4481
aVeditor
p4482
aVanalyst
p4483
aVbelievers
p4484
aVcovert
p4485
aVsale
p4486
aVzhong
p4487
aVclear-cut
p4488
aVpotato
p4489
aVthemes
p4490
aVabundant
p4491
aVblack
p4492
aVtanaka
p4493
aVmarks
p4494
aVrua
p4495
aVfrench
p4496
aVsuggestion
p4497
aVsake
p4498
aVinsider
p4499
aVsoul
p4500
aVdeceive
p4501
aVresidence
p4502
aVshake
p4503
aVconsolidating
p4504
aVundermined
p4505
aVours
p4506
aVbeach
p4507
aVmisgivings
p4508
aVpreaching
p4509
aVcanada
p4510
aVsocialized
p4511
aVsino-foreign
p4512
aVsino-eu
p4513
aVtrampled
p4514
aVaccurately
p4515
aVbroadcast
p4516
aVvain
p4517
aVventure
p4518
aVconspiracy
p4519
aVspeakers
p4520
aVefficient
p4521
aVcertification
p4522
aVmubarak
p4523
aVtreasure
p4524
aVyield
p4525
aVmiles
p4526
aVworrying
p4527
aVintergovernmental
p4528
aVstipulation
p4529
aVrelative
p4530
aVdialectic
p4531
aVsteadfast
p4532
aVreading
p4533
aVjr
p4534
aVcancel
p4535
aVpredicament
p4536
aVconferences
p4537
aVstrain
p4538
aVtourist
p4539
aVdoctor
p4540
aVcompiling
p4541
aVintermediary
p4542
aVdriven
p4543
aVholbrooke
p4544
aVconvened
p4545
aVdisappointed
p4546
aVchamber
p4547
aVgross
p4548
aVentities
p4549
aVmanufactured
p4550
aVsquarely
p4551
aVshih-pao
p4552
aVpharmaceutical
p4553
aVdeadlock
p4554
aVcelestial
p4555
aVfill
p4556
aVprudent
p4557
aVexpressions
p4558
aVlawyer
p4559
aVnarrow
p4560
aVtransit
p4561
aVhegemony
p4562
aVhour
p4563
aVguards
p4564
aVabandon
p4565
aVdec
p4566
aVsharp
p4567
aVmovements
p4568
aVclamor
p4569
aVmaterialism
p4570
aVevade
p4571
aVmental
p4572
aVpopularization
p4573
aVyongkang
p4574
aVdong
p4575
aVlease
p4576
aV863
p4577
aVdeclare
p4578
aVardent
p4579
aVleaking
p4580
aVfaces
p4581
aVunhappy
p4582
aVbuhe
p4583
aVcourage
p4584
aVforthcoming
p4585
aVsolely
p4586
aVrealms
p4587
aVshoddy
p4588
aVbenign
p4589
aVrealm
p4590
aVorganically
p4591
aVatomic
p4592
aVreunified
p4593
aVaffects
p4594
aV300
p4595
aVmanifested
p4596
aVadjusting
p4597
aVaccidental
p4598
aVstatesman
p4599
aVcontacted
p4600
aVbrigade
p4601
aVpresently
p4602
aVshock
p4603
aVsing
p4604
aVwidening
p4605
aV38
p4606
aVpatrol
p4607
aVnoteworthy
p4608
aVnative
p4609
aVambiguous
p4610
aVbombers
p4611
aVpro-taiwan
p4612
aV3,000
p4613
aVbarriers
p4614
aVreaches
p4615
aVimprovements
p4616
aVlagging
p4617
aVnobody
p4618
aVdemocratization
p4619
aVlightening
p4620
aVembody
p4621
aVpoverty-stricken
p4622
aVmin
p4623
aVgravity
p4624
aV1,000
p4625
aVnormally
p4626
aVcommunism
p4627
aVbuying
p4628
aVtightening
p4629
aVconform
p4630
aVintensity
p4631
aVroutine
p4632
aVcommenting
p4633
aVfulfilled
p4634
aVattributes
p4635
aVfostering
p4636
aVassessments
p4637
aVpublicize
p4638
aVseats
p4639
aVcitizen
p4640
aVpetrochemical
p4641
aVjournalist
p4642
aVitalian
p4643
aVtony
p4644
aVhappens
p4645
aVtransmitted
p4646
aVwithdrew
p4647
aV1989
p4648
aV49
p4649
aVlegacies
p4650
aVus-british
p4651
aVcrises
p4652
aVsufferings
p4653
aVlegislators
p4654
aVinfiltration
p4655
aVblue
p4656
aVseeks
p4657
aVulterior
p4658
aVhundreds
p4659
aVassessment
p4660
aVadvocacy
p4661
aVmu
p4662
aVmr
p4663
aVestate
p4664
aVaccusations
p4665
aVdescription
p4666
aVacknowledged
p4667
aVcomplexity
p4668
aVremold
p4669
aVlondon
p4670
aVdestroyer
p4671
aVdiseases
p4672
aVprevented
p4673
aVsanya
p4674
aVcelebrating
p4675
aVcombining
p4676
aVlingshui
p4677
aVrank
p4678
aVrevival
p4679
aVtool
p4680
aVshell
p4681
aVregulate
p4682
aVlpcwp
p4683
aV1960
p4684
aVearth
p4685
aVzaixi
p4686
aVfour-point
p4687
aVhostility
p4688
aVspokesperson
p4689
aVtwice
p4690
aV1960s
p4691
aVconfusion
p4692
aVexpense
p4693
aVcracked
p4694
aVprocedure
p4695
aVtransporting
p4696
aVadvances
p4697
aVappearing
p4698
aV55
p4699
aV52
p4700
aVarbitrary
p4701
aVmusharraf
p4702
aVembodies
p4703
aVmirage
p4704
aVaccommodate
p4705
aVlaborers
p4706
aVlags
p4707
aVattempted
p4708
aVkinmen
p4709
aVmeters
p4710
aVhaikou
p4711
aVtip
p4712
aVpicture
p4713
aVpreceding
p4714
aVpropelling
p4715
aVlanded
p4716
aVuncovered
p4717
aVleads
p4718
aVcool
p4719
aVdenounced
p4720
aVencroach
p4721
aVwidened
p4722
aVlawful
p4723
aVreply
p4724
aVsino-rok
p4725
aVshui-pien
p4726
aVemerge
p4727
aVpurchases
p4728
aVfuel
p4729
aVdistricts
p4730
aVtrump
p4731
aVprovoke
p4732
aVneighborly
p4733
aVhomicide
p4734
aVislamic
p4735
aVclassroom
p4736
aVdelighted
p4737
aVnon-ruling
p4738
aVblueprints
p4739
aVstabilize
p4740
aVfarewell
p4741
aVintended
p4742
aVimpose
p4743
aVnecessarily
p4744
aVhua
p4745
aVcapitalists
p4746
aVcards
p4747
aVarmored
p4748
aVideal
p4749
aVclearer
p4750
aVfalls
p4751
aVvisitors
p4752
aVtrafficking
p4753
aVmid-march
p4754
aVparking
p4755
aVleftists
p4756
aVrailway
p4757
aVinsist
p4758
aVresentment
p4759
aVfeaturing
p4760
aVcass
p4761
aVcheck
p4762
aVpropose
p4763
aVranch
p4764
aVannouncement
p4765
aVbudgetary
p4766
aVdisrupt
p4767
aVtower
p4768
aVvalue-added
p4769
aVdevelopmental
p4770
aVinspect
p4771
aVshaomin
p4772
aVconservancy
p4773
aVvalley
p4774
aVstrenuous
p4775
aVfaster
p4776
aVapplying
p4777
aVtotaling
p4778
aVsymbol
p4779
aVbounden
p4780
aVpsychology
p4781
aVwebsites
p4782
aVwreath
p4783
aVfan
p4784
aVlist
p4785
aVten
p4786
aVchongqing
p4787
aVoptions
p4788
aVimagine
p4789
aVminor
p4790
aVparty-building
p4791
aVshanxi
p4792
aVinfluences
p4793
aVprospecting
p4794
aVgroundless
p4795
aVmaneuver
p4796
aVclashes
p4797
aVcross-straits
p4798
aVneedless
p4799
aVmodernized
p4800
aVnepal
p4801
aVcommemorative
p4802
aVlag
p4803
aVenlarged
p4804
aVconstruct
p4805
aVfees
p4806
aVstory
p4807
aVtemperature
p4808
aVinterviews
p4809
aVcoasts
p4810
aVqinglin
p4811
aV76
p4812
aVmineral
p4813
aVbureaucratism
p4814
aVlying
p4815
aVexcessive
p4816
aVlhasa
p4817
aVobuchi
p4818
aVgains
p4819
aVceremoniously
p4820
aVinvestigate
p4821
aVduma
p4822
aVarm
p4823
aVyouth
p4824
aVconsecutive
p4825
aVlahore
p4826
aVbond
p4827
aV1950s
p4828
aVobstacle
p4829
aVliterature
p4830
aVusually
p4831
aVvigilant
p4832
aVplateau
p4833
aVjapan-us
p4834
aVunstable
p4835
aVpatriot
p4836
aVusers
p4837
aVgenerated
p4838
aVqiaomu
p4839
aVdealt
p4840
aVdealers
p4841
aVfolk
p4842
aVconcessions
p4843
aVchose
p4844
aVegypt
p4845
aVfei
p4846
aVcooperate
p4847
aVstrategically
p4848
aVproof
p4849
aVstruggled
p4850
aVmilitarist
p4851
aVpreparing
p4852
aVcommended
p4853
aVsuccessor
p4854
aVcategory
p4855
aVpromptly
p4856
aVorganic
p4857
aVsalient
p4858
aVseat
p4859
aV1.3
p4860
aVteenagers
p4861
aVunremittingly
p4862
aVhw
p4863
aVharmful
p4864
aVspurring
p4865
aVunanimously
p4866
aVhosting
p4867
aVdeclining
p4868
aVdiehard
p4869
aVunlike
p4870
aVdual
p4871
aVunite
p4872
aV6,599
p4873
aVstudent
p4874
aVtheses
p4875
aVrocket
p4876
aVexecute
p4877
aVsearching
p4878
aVshipping
p4879
aVdynamite
p4880
aVtriggered
p4881
aVautomated
p4882
aVdemonstrate
p4883
aVsick
p4884
aVwithstood
p4885
aVnon-military
p4886
a.